
a.out:     file format elf64-x86-64


Disassembly of section .init:

0000000000401208 <_init>:
  401208:	48 83 ec 08          	sub    $0x8,%rsp
  40120c:	48 8b 05 e5 9d 20 00 	mov    0x209de5(%rip),%rax        # 60aff8 <_DYNAMIC+0x200>
  401213:	48 85 c0             	test   %rax,%rax
  401216:	74 05                	je     40121d <_init+0x15>
  401218:	e8 83 00 00 00       	callq  4012a0 <__gmon_start__@plt>
  40121d:	48 83 c4 08          	add    $0x8,%rsp
  401221:	c3                   	retq   

Disassembly of section .plt:

0000000000401230 <_ZSt20__throw_length_errorPKc@plt-0x10>:
  401230:	ff 35 d2 9d 20 00    	pushq  0x209dd2(%rip)        # 60b008 <_GLOBAL_OFFSET_TABLE_+0x8>
  401236:	ff 25 d4 9d 20 00    	jmpq   *0x209dd4(%rip)        # 60b010 <_GLOBAL_OFFSET_TABLE_+0x10>
  40123c:	0f 1f 40 00          	nopl   0x0(%rax)

0000000000401240 <_ZSt20__throw_length_errorPKc@plt>:
  401240:	ff 25 d2 9d 20 00    	jmpq   *0x209dd2(%rip)        # 60b018 <_GLOBAL_OFFSET_TABLE_+0x18>
  401246:	68 00 00 00 00       	pushq  $0x0
  40124b:	e9 e0 ff ff ff       	jmpq   401230 <_init+0x28>

0000000000401250 <_ZNSolsEd@plt>:
  401250:	ff 25 ca 9d 20 00    	jmpq   *0x209dca(%rip)        # 60b020 <_GLOBAL_OFFSET_TABLE_+0x20>
  401256:	68 01 00 00 00       	pushq  $0x1
  40125b:	e9 d0 ff ff ff       	jmpq   401230 <_init+0x28>

0000000000401260 <fileno@plt>:
  401260:	ff 25 c2 9d 20 00    	jmpq   *0x209dc2(%rip)        # 60b028 <_GLOBAL_OFFSET_TABLE_+0x28>
  401266:	68 02 00 00 00       	pushq  $0x2
  40126b:	e9 c0 ff ff ff       	jmpq   401230 <_init+0x28>

0000000000401270 <_ZStlsIcSt11char_traitsIcEERSt13basic_ostreamIT_T0_ES6_St13_Setprecision@plt>:
  401270:	ff 25 ba 9d 20 00    	jmpq   *0x209dba(%rip)        # 60b030 <_GLOBAL_OFFSET_TABLE_+0x30>
  401276:	68 03 00 00 00       	pushq  $0x3
  40127b:	e9 b0 ff ff ff       	jmpq   401230 <_init+0x28>

0000000000401280 <__cxa_guard_acquire@plt>:
  401280:	ff 25 b2 9d 20 00    	jmpq   *0x209db2(%rip)        # 60b038 <_GLOBAL_OFFSET_TABLE_+0x38>
  401286:	68 04 00 00 00       	pushq  $0x4
  40128b:	e9 a0 ff ff ff       	jmpq   401230 <_init+0x28>

0000000000401290 <isatty@plt>:
  401290:	ff 25 aa 9d 20 00    	jmpq   *0x209daa(%rip)        # 60b040 <_GLOBAL_OFFSET_TABLE_+0x40>
  401296:	68 05 00 00 00       	pushq  $0x5
  40129b:	e9 90 ff ff ff       	jmpq   401230 <_init+0x28>

00000000004012a0 <__gmon_start__@plt>:
  4012a0:	ff 25 a2 9d 20 00    	jmpq   *0x209da2(%rip)        # 60b048 <_GLOBAL_OFFSET_TABLE_+0x48>
  4012a6:	68 06 00 00 00       	pushq  $0x6
  4012ab:	e9 80 ff ff ff       	jmpq   401230 <_init+0x28>

00000000004012b0 <_ZdlPv@plt>:
  4012b0:	ff 25 9a 9d 20 00    	jmpq   *0x209d9a(%rip)        # 60b050 <_GLOBAL_OFFSET_TABLE_+0x50>
  4012b6:	68 07 00 00 00       	pushq  $0x7
  4012bb:	e9 70 ff ff ff       	jmpq   401230 <_init+0x28>

00000000004012c0 <_ZdlPvm@plt>:
  4012c0:	ff 25 92 9d 20 00    	jmpq   *0x209d92(%rip)        # 60b058 <_GLOBAL_OFFSET_TABLE_+0x58>
  4012c6:	68 08 00 00 00       	pushq  $0x8
  4012cb:	e9 60 ff ff ff       	jmpq   401230 <_init+0x28>

00000000004012d0 <gettimeofday@plt>:
  4012d0:	ff 25 8a 9d 20 00    	jmpq   *0x209d8a(%rip)        # 60b060 <_GLOBAL_OFFSET_TABLE_+0x60>
  4012d6:	68 09 00 00 00       	pushq  $0x9
  4012db:	e9 50 ff ff ff       	jmpq   401230 <_init+0x28>

00000000004012e0 <__cxa_rethrow@plt>:
  4012e0:	ff 25 82 9d 20 00    	jmpq   *0x209d82(%rip)        # 60b068 <_GLOBAL_OFFSET_TABLE_+0x68>
  4012e6:	68 0a 00 00 00       	pushq  $0xa
  4012eb:	e9 40 ff ff ff       	jmpq   401230 <_init+0x28>

00000000004012f0 <_ZNSt8ios_base4InitC1Ev@plt>:
  4012f0:	ff 25 7a 9d 20 00    	jmpq   *0x209d7a(%rip)        # 60b070 <_GLOBAL_OFFSET_TABLE_+0x70>
  4012f6:	68 0b 00 00 00       	pushq  $0xb
  4012fb:	e9 30 ff ff ff       	jmpq   401230 <_init+0x28>

0000000000401300 <__libc_start_main@plt>:
  401300:	ff 25 72 9d 20 00    	jmpq   *0x209d72(%rip)        # 60b078 <_GLOBAL_OFFSET_TABLE_+0x78>
  401306:	68 0c 00 00 00       	pushq  $0xc
  40130b:	e9 20 ff ff ff       	jmpq   401230 <_init+0x28>

0000000000401310 <_ZNSsC1ERKSs@plt>:
  401310:	ff 25 6a 9d 20 00    	jmpq   *0x209d6a(%rip)        # 60b080 <_GLOBAL_OFFSET_TABLE_+0x80>
  401316:	68 0d 00 00 00       	pushq  $0xd
  40131b:	e9 10 ff ff ff       	jmpq   401230 <_init+0x28>

0000000000401320 <__cxa_atexit@plt>:
  401320:	ff 25 62 9d 20 00    	jmpq   *0x209d62(%rip)        # 60b088 <_GLOBAL_OFFSET_TABLE_+0x88>
  401326:	68 0e 00 00 00       	pushq  $0xe
  40132b:	e9 00 ff ff ff       	jmpq   401230 <_init+0x28>

0000000000401330 <_ZNKSs4findERKSsm@plt>:
  401330:	ff 25 5a 9d 20 00    	jmpq   *0x209d5a(%rip)        # 60b090 <_GLOBAL_OFFSET_TABLE_+0x90>
  401336:	68 0f 00 00 00       	pushq  $0xf
  40133b:	e9 f0 fe ff ff       	jmpq   401230 <_init+0x28>

0000000000401340 <_ZNSt8ios_base4InitD1Ev@plt>:
  401340:	ff 25 52 9d 20 00    	jmpq   *0x209d52(%rip)        # 60b098 <_GLOBAL_OFFSET_TABLE_+0x98>
  401346:	68 10 00 00 00       	pushq  $0x10
  40134b:	e9 e0 fe ff ff       	jmpq   401230 <_init+0x28>

0000000000401350 <_ZStlsISt11char_traitsIcEERSt13basic_ostreamIcT_ES5_PKc@plt>:
  401350:	ff 25 4a 9d 20 00    	jmpq   *0x209d4a(%rip)        # 60b0a0 <_GLOBAL_OFFSET_TABLE_+0xa0>
  401356:	68 11 00 00 00       	pushq  $0x11
  40135b:	e9 d0 fe ff ff       	jmpq   401230 <_init+0x28>

0000000000401360 <_ZNSsD1Ev@plt>:
  401360:	ff 25 42 9d 20 00    	jmpq   *0x209d42(%rip)        # 60b0a8 <_GLOBAL_OFFSET_TABLE_+0xa8>
  401366:	68 12 00 00 00       	pushq  $0x12
  40136b:	e9 c0 fe ff ff       	jmpq   401230 <_init+0x28>

0000000000401370 <strlen@plt>:
  401370:	ff 25 3a 9d 20 00    	jmpq   *0x209d3a(%rip)        # 60b0b0 <_GLOBAL_OFFSET_TABLE_+0xb0>
  401376:	68 13 00 00 00       	pushq  $0x13
  40137b:	e9 b0 fe ff ff       	jmpq   401230 <_init+0x28>

0000000000401380 <_ZNSs4_Rep10_M_destroyERKSaIcE@plt>:
  401380:	ff 25 32 9d 20 00    	jmpq   *0x209d32(%rip)        # 60b0b8 <_GLOBAL_OFFSET_TABLE_+0xb8>
  401386:	68 14 00 00 00       	pushq  $0x14
  40138b:	e9 a0 fe ff ff       	jmpq   401230 <_init+0x28>

0000000000401390 <__cxa_guard_release@plt>:
  401390:	ff 25 2a 9d 20 00    	jmpq   *0x209d2a(%rip)        # 60b0c0 <_GLOBAL_OFFSET_TABLE_+0xc0>
  401396:	68 15 00 00 00       	pushq  $0x15
  40139b:	e9 90 fe ff ff       	jmpq   401230 <_init+0x28>

00000000004013a0 <_ZNSolsEm@plt>:
  4013a0:	ff 25 22 9d 20 00    	jmpq   *0x209d22(%rip)        # 60b0c8 <_GLOBAL_OFFSET_TABLE_+0xc8>
  4013a6:	68 16 00 00 00       	pushq  $0x16
  4013ab:	e9 80 fe ff ff       	jmpq   401230 <_init+0x28>

00000000004013b0 <_ZNSsC1EPKcRKSaIcE@plt>:
  4013b0:	ff 25 1a 9d 20 00    	jmpq   *0x209d1a(%rip)        # 60b0d0 <_GLOBAL_OFFSET_TABLE_+0xd0>
  4013b6:	68 17 00 00 00       	pushq  $0x17
  4013bb:	e9 70 fe ff ff       	jmpq   401230 <_init+0x28>

00000000004013c0 <__cxa_pure_virtual@plt>:
  4013c0:	ff 25 12 9d 20 00    	jmpq   *0x209d12(%rip)        # 60b0d8 <_GLOBAL_OFFSET_TABLE_+0xd8>
  4013c6:	68 18 00 00 00       	pushq  $0x18
  4013cb:	e9 60 fe ff ff       	jmpq   401230 <_init+0x28>

00000000004013d0 <memmove@plt>:
  4013d0:	ff 25 0a 9d 20 00    	jmpq   *0x209d0a(%rip)        # 60b0e0 <_GLOBAL_OFFSET_TABLE_+0xe0>
  4013d6:	68 19 00 00 00       	pushq  $0x19
  4013db:	e9 50 fe ff ff       	jmpq   401230 <_init+0x28>

00000000004013e0 <_ZStlsIcSt11char_traitsIcESaIcEERSt13basic_ostreamIT_T0_ES7_RKSbIS4_S5_T1_E@plt>:
  4013e0:	ff 25 02 9d 20 00    	jmpq   *0x209d02(%rip)        # 60b0e8 <_GLOBAL_OFFSET_TABLE_+0xe8>
  4013e6:	68 1a 00 00 00       	pushq  $0x1a
  4013eb:	e9 40 fe ff ff       	jmpq   401230 <_init+0x28>

00000000004013f0 <_ZNSs6appendEPKc@plt>:
  4013f0:	ff 25 fa 9c 20 00    	jmpq   *0x209cfa(%rip)        # 60b0f0 <_GLOBAL_OFFSET_TABLE_+0xf0>
  4013f6:	68 1b 00 00 00       	pushq  $0x1b
  4013fb:	e9 30 fe ff ff       	jmpq   401230 <_init+0x28>

0000000000401400 <memcmp@plt>:
  401400:	ff 25 f2 9c 20 00    	jmpq   *0x209cf2(%rip)        # 60b0f8 <_GLOBAL_OFFSET_TABLE_+0xf8>
  401406:	68 1c 00 00 00       	pushq  $0x1c
  40140b:	e9 20 fe ff ff       	jmpq   401230 <_init+0x28>

0000000000401410 <_ZNSolsEPFRSoS_E@plt>:
  401410:	ff 25 ea 9c 20 00    	jmpq   *0x209cea(%rip)        # 60b100 <_GLOBAL_OFFSET_TABLE_+0x100>
  401416:	68 1d 00 00 00       	pushq  $0x1d
  40141b:	e9 10 fe ff ff       	jmpq   401230 <_init+0x28>

0000000000401420 <__cxa_end_catch@plt>:
  401420:	ff 25 e2 9c 20 00    	jmpq   *0x209ce2(%rip)        # 60b108 <_GLOBAL_OFFSET_TABLE_+0x108>
  401426:	68 1e 00 00 00       	pushq  $0x1e
  40142b:	e9 00 fe ff ff       	jmpq   401230 <_init+0x28>

0000000000401430 <_ZSt17__throw_bad_allocv@plt>:
  401430:	ff 25 da 9c 20 00    	jmpq   *0x209cda(%rip)        # 60b110 <_GLOBAL_OFFSET_TABLE_+0x110>
  401436:	68 1f 00 00 00       	pushq  $0x1f
  40143b:	e9 f0 fd ff ff       	jmpq   401230 <_init+0x28>

0000000000401440 <_ZSt4endlIcSt11char_traitsIcEERSt13basic_ostreamIT_T0_ES6_@plt>:
  401440:	ff 25 d2 9c 20 00    	jmpq   *0x209cd2(%rip)        # 60b118 <_GLOBAL_OFFSET_TABLE_+0x118>
  401446:	68 20 00 00 00       	pushq  $0x20
  40144b:	e9 e0 fd ff ff       	jmpq   401230 <_init+0x28>

0000000000401450 <__cxa_begin_catch@plt>:
  401450:	ff 25 ca 9c 20 00    	jmpq   *0x209cca(%rip)        # 60b120 <_GLOBAL_OFFSET_TABLE_+0x120>
  401456:	68 21 00 00 00       	pushq  $0x21
  40145b:	e9 d0 fd ff ff       	jmpq   401230 <_init+0x28>

0000000000401460 <__gxx_personality_v0@plt>:
  401460:	ff 25 c2 9c 20 00    	jmpq   *0x209cc2(%rip)        # 60b128 <_GLOBAL_OFFSET_TABLE_+0x128>
  401466:	68 22 00 00 00       	pushq  $0x22
  40146b:	e9 c0 fd ff ff       	jmpq   401230 <_init+0x28>

0000000000401470 <_Znwm@plt>:
  401470:	ff 25 ba 9c 20 00    	jmpq   *0x209cba(%rip)        # 60b130 <_GLOBAL_OFFSET_TABLE_+0x130>
  401476:	68 23 00 00 00       	pushq  $0x23
  40147b:	e9 b0 fd ff ff       	jmpq   401230 <_init+0x28>

0000000000401480 <_Unwind_Resume@plt>:
  401480:	ff 25 b2 9c 20 00    	jmpq   *0x209cb2(%rip)        # 60b138 <_GLOBAL_OFFSET_TABLE_+0x138>
  401486:	68 24 00 00 00       	pushq  $0x24
  40148b:	e9 a0 fd ff ff       	jmpq   401230 <_init+0x28>

0000000000401490 <_ZNSolsEPFRSt8ios_baseS0_E@plt>:
  401490:	ff 25 aa 9c 20 00    	jmpq   *0x209caa(%rip)        # 60b140 <_GLOBAL_OFFSET_TABLE_+0x140>
  401496:	68 25 00 00 00       	pushq  $0x25
  40149b:	e9 90 fd ff ff       	jmpq   401230 <_init+0x28>

00000000004014a0 <_ZNSs6appendERKSs@plt>:
  4014a0:	ff 25 a2 9c 20 00    	jmpq   *0x209ca2(%rip)        # 60b148 <_GLOBAL_OFFSET_TABLE_+0x148>
  4014a6:	68 26 00 00 00       	pushq  $0x26
  4014ab:	e9 80 fd ff ff       	jmpq   401230 <_init+0x28>

00000000004014b0 <_ZStlsIcSt11char_traitsIcEERSt13basic_ostreamIT_T0_ES6_St5_Setw@plt>:
  4014b0:	ff 25 9a 9c 20 00    	jmpq   *0x209c9a(%rip)        # 60b150 <_GLOBAL_OFFSET_TABLE_+0x150>
  4014b6:	68 27 00 00 00       	pushq  $0x27
  4014bb:	e9 70 fd ff ff       	jmpq   401230 <_init+0x28>

Disassembly of section .text:

00000000004014c0 <_GLOBAL__sub_I_N>:
  4014c0:	53                   	push   %rbx
  4014c1:	bf b0 b3 60 00       	mov    $0x60b3b0,%edi
  4014c6:	48 83 ec 20          	sub    $0x20,%rsp
  4014ca:	e8 21 fe ff ff       	callq  4012f0 <_ZNSt8ios_base4InitC1Ev@plt>
  4014cf:	ba 48 74 40 00       	mov    $0x407448,%edx
  4014d4:	be b0 b3 60 00       	mov    $0x60b3b0,%esi
  4014d9:	bf 40 13 40 00       	mov    $0x401340,%edi
  4014de:	e8 3d fe ff ff       	callq  401320 <__cxa_atexit@plt>
  4014e3:	bf 10 00 00 00       	mov    $0x10,%edi
  4014e8:	e8 83 ff ff ff       	callq  401470 <_Znwm@plt>
  4014ed:	ba 48 74 40 00       	mov    $0x407448,%edx
  4014f2:	be a8 b3 60 00       	mov    $0x60b3a8,%esi
  4014f7:	bf 20 1b 40 00       	mov    $0x401b20,%edi
  4014fc:	48 c7 00 b0 76 40 00 	movq   $0x4076b0,(%rax)
  401503:	48 c7 40 08 00 00 00 	movq   $0x0,0x8(%rax)
  40150a:	00 
  40150b:	48 89 05 96 9e 20 00 	mov    %rax,0x209e96(%rip)        # 60b3a8 <dynobj>
  401512:	e8 09 fe ff ff       	callq  401320 <__cxa_atexit@plt>
  401517:	bf 08 00 00 00       	mov    $0x8,%edi
  40151c:	e8 4f ff ff ff       	callq  401470 <_Znwm@plt>
  401521:	ba 48 74 40 00       	mov    $0x407448,%edx
  401526:	be a0 b3 60 00       	mov    $0x60b3a0,%esi
  40152b:	bf 40 1b 40 00       	mov    $0x401b40,%edi
  401530:	48 c7 00 00 00 00 00 	movq   $0x0,(%rax)
  401537:	48 89 05 62 9e 20 00 	mov    %rax,0x209e62(%rip)        # 60b3a0 <crtpobj>
  40153e:	e8 dd fd ff ff       	callq  401320 <__cxa_atexit@plt>
  401543:	e8 a8 08 00 00       	callq  401df0 <_ZN5hayai11Benchmarker8InstanceEv>
  401548:	48 8d 7c 24 10       	lea    0x10(%rsp),%rdi
  40154d:	48 8d 54 24 0e       	lea    0xe(%rsp),%rdx
  401552:	be 8d 74 40 00       	mov    $0x40748d,%esi
  401557:	e8 54 fe ff ff       	callq  4013b0 <_ZNSsC1EPKcRKSaIcE@plt>
  40155c:	bf 08 00 00 00       	mov    $0x8,%edi
  401561:	e8 0a ff ff ff       	callq  401470 <_Znwm@plt>
  401566:	4c 8d 4c 24 10       	lea    0x10(%rsp),%r9
  40156b:	49 89 c0             	mov    %rax,%r8
  40156e:	48 c7 00 d0 76 40 00 	movq   $0x4076d0,(%rax)
  401575:	b9 e8 03 00 00       	mov    $0x3e8,%ecx
  40157a:	ba 64 00 00 00       	mov    $0x64,%edx
  40157f:	be 50 74 40 00       	mov    $0x407450,%esi
  401584:	bf 5c 74 40 00       	mov    $0x40745c,%edi
  401589:	e8 12 0a 00 00       	callq  401fa0 <_ZN5hayai11Benchmarker12RegisterTestEPKcS2_mmPNS_11TestFactoryESs>
  40158e:	48 89 05 03 9e 20 00 	mov    %rax,0x209e03(%rip)        # 60b398 <_ZN38DynamicInterface_run_dynamic_Benchmark11_descriptorE>
  401595:	48 8b 44 24 10       	mov    0x10(%rsp),%rax
  40159a:	48 8d 78 e8          	lea    -0x18(%rax),%rdi
  40159e:	48 81 ff 60 b3 60 00 	cmp    $0x60b360,%rdi
  4015a5:	75 6a                	jne    401611 <_GLOBAL__sub_I_N+0x151>
  4015a7:	e8 44 08 00 00       	callq  401df0 <_ZN5hayai11Benchmarker8InstanceEv>
  4015ac:	48 8d 7c 24 10       	lea    0x10(%rsp),%rdi
  4015b1:	48 8d 54 24 0e       	lea    0xe(%rsp),%rdx
  4015b6:	be 8d 74 40 00       	mov    $0x40748d,%esi
  4015bb:	e8 f0 fd ff ff       	callq  4013b0 <_ZNSsC1EPKcRKSaIcE@plt>
  4015c0:	bf 08 00 00 00       	mov    $0x8,%edi
  4015c5:	e8 a6 fe ff ff       	callq  401470 <_Znwm@plt>
  4015ca:	4c 8d 4c 24 10       	lea    0x10(%rsp),%r9
  4015cf:	49 89 c0             	mov    %rax,%r8
  4015d2:	48 c7 00 30 77 40 00 	movq   $0x407730,(%rax)
  4015d9:	b9 e8 03 00 00       	mov    $0x3e8,%ecx
  4015de:	ba 64 00 00 00       	mov    $0x64,%edx
  4015e3:	be 6d 74 40 00       	mov    $0x40746d,%esi
  4015e8:	bf 76 74 40 00       	mov    $0x407476,%edi
  4015ed:	e8 ae 09 00 00       	callq  401fa0 <_ZN5hayai11Benchmarker12RegisterTestEPKcS2_mmPNS_11TestFactoryESs>
  4015f2:	48 89 05 97 9d 20 00 	mov    %rax,0x209d97(%rip)        # 60b390 <_ZN32CRTPInterface_run_crtp_Benchmark11_descriptorE>
  4015f9:	48 8b 44 24 10       	mov    0x10(%rsp),%rax
  4015fe:	48 8d 78 e8          	lea    -0x18(%rax),%rdi
  401602:	48 81 ff 60 b3 60 00 	cmp    $0x60b360,%rdi
  401609:	75 12                	jne    40161d <_GLOBAL__sub_I_N+0x15d>
  40160b:	48 83 c4 20          	add    $0x20,%rsp
  40160f:	5b                   	pop    %rbx
  401610:	c3                   	retq   
  401611:	48 8d 74 24 0f       	lea    0xf(%rsp),%rsi
  401616:	e8 d5 02 00 00       	callq  4018f0 <_ZNSs4_Rep10_M_disposeERKSaIcE.part.0>
  40161b:	eb 8a                	jmp    4015a7 <_GLOBAL__sub_I_N+0xe7>
  40161d:	48 8d 74 24 0f       	lea    0xf(%rsp),%rsi
  401622:	e8 c9 02 00 00       	callq  4018f0 <_ZNSs4_Rep10_M_disposeERKSaIcE.part.0>
  401627:	eb e2                	jmp    40160b <_GLOBAL__sub_I_N+0x14b>
  401629:	48 89 c3             	mov    %rax,%rbx
  40162c:	48 8b 44 24 10       	mov    0x10(%rsp),%rax
  401631:	48 8d 78 e8          	lea    -0x18(%rax),%rdi
  401635:	48 81 ff 60 b3 60 00 	cmp    $0x60b360,%rdi
  40163c:	74 0a                	je     401648 <_GLOBAL__sub_I_N+0x188>
  40163e:	48 8d 74 24 0f       	lea    0xf(%rsp),%rsi
  401643:	e8 a8 02 00 00       	callq  4018f0 <_ZNSs4_Rep10_M_disposeERKSaIcE.part.0>
  401648:	48 89 df             	mov    %rbx,%rdi
  40164b:	e8 30 fe ff ff       	callq  401480 <_Unwind_Resume@plt>
  401650:	eb d7                	jmp    401629 <_GLOBAL__sub_I_N+0x169>
  401652:	66 2e 0f 1f 84 00 00 	nopw   %cs:0x0(%rax,%rax,1)
  401659:	00 00 00 
  40165c:	0f 1f 40 00          	nopl   0x0(%rax)

0000000000401660 <_start>:
  401660:	31 ed                	xor    %ebp,%ebp
  401662:	49 89 d1             	mov    %rdx,%r9
  401665:	5e                   	pop    %rsi
  401666:	48 89 e2             	mov    %rsp,%rdx
  401669:	48 83 e4 f0          	and    $0xfffffffffffffff0,%rsp
  40166d:	50                   	push   %rax
  40166e:	54                   	push   %rsp
  40166f:	49 c7 c0 20 74 40 00 	mov    $0x407420,%r8
  401676:	48 c7 c1 b0 73 40 00 	mov    $0x4073b0,%rcx
  40167d:	48 c7 c7 42 22 40 00 	mov    $0x402242,%rdi
  401684:	e8 77 fc ff ff       	callq  401300 <__libc_start_main@plt>
  401689:	f4                   	hlt    
  40168a:	66 0f 1f 44 00 00    	nopw   0x0(%rax,%rax,1)

0000000000401690 <deregister_tm_clones>:
  401690:	b8 77 b1 60 00       	mov    $0x60b177,%eax
  401695:	55                   	push   %rbp
  401696:	48 2d 70 b1 60 00    	sub    $0x60b170,%rax
  40169c:	48 83 f8 0e          	cmp    $0xe,%rax
  4016a0:	48 89 e5             	mov    %rsp,%rbp
  4016a3:	76 1b                	jbe    4016c0 <deregister_tm_clones+0x30>
  4016a5:	b8 00 00 00 00       	mov    $0x0,%eax
  4016aa:	48 85 c0             	test   %rax,%rax
  4016ad:	74 11                	je     4016c0 <deregister_tm_clones+0x30>
  4016af:	5d                   	pop    %rbp
  4016b0:	bf 70 b1 60 00       	mov    $0x60b170,%edi
  4016b5:	ff e0                	jmpq   *%rax
  4016b7:	66 0f 1f 84 00 00 00 	nopw   0x0(%rax,%rax,1)
  4016be:	00 00 
  4016c0:	5d                   	pop    %rbp
  4016c1:	c3                   	retq   
  4016c2:	66 66 66 66 66 2e 0f 	data16 data16 data16 data16 nopw %cs:0x0(%rax,%rax,1)
  4016c9:	1f 84 00 00 00 00 00 

00000000004016d0 <register_tm_clones>:
  4016d0:	be 70 b1 60 00       	mov    $0x60b170,%esi
  4016d5:	55                   	push   %rbp
  4016d6:	48 81 ee 70 b1 60 00 	sub    $0x60b170,%rsi
  4016dd:	48 c1 fe 03          	sar    $0x3,%rsi
  4016e1:	48 89 e5             	mov    %rsp,%rbp
  4016e4:	48 89 f0             	mov    %rsi,%rax
  4016e7:	48 c1 e8 3f          	shr    $0x3f,%rax
  4016eb:	48 01 c6             	add    %rax,%rsi
  4016ee:	48 d1 fe             	sar    %rsi
  4016f1:	74 15                	je     401708 <register_tm_clones+0x38>
  4016f3:	b8 00 00 00 00       	mov    $0x0,%eax
  4016f8:	48 85 c0             	test   %rax,%rax
  4016fb:	74 0b                	je     401708 <register_tm_clones+0x38>
  4016fd:	5d                   	pop    %rbp
  4016fe:	bf 70 b1 60 00       	mov    $0x60b170,%edi
  401703:	ff e0                	jmpq   *%rax
  401705:	0f 1f 00             	nopl   (%rax)
  401708:	5d                   	pop    %rbp
  401709:	c3                   	retq   
  40170a:	66 0f 1f 44 00 00    	nopw   0x0(%rax,%rax,1)

0000000000401710 <__do_global_dtors_aux>:
  401710:	80 3d 71 9c 20 00 00 	cmpb   $0x0,0x209c71(%rip)        # 60b388 <completed.6929>
  401717:	75 11                	jne    40172a <__do_global_dtors_aux+0x1a>
  401719:	55                   	push   %rbp
  40171a:	48 89 e5             	mov    %rsp,%rbp
  40171d:	e8 6e ff ff ff       	callq  401690 <deregister_tm_clones>
  401722:	5d                   	pop    %rbp
  401723:	c6 05 5e 9c 20 00 01 	movb   $0x1,0x209c5e(%rip)        # 60b388 <completed.6929>
  40172a:	f3 c3                	repz retq 
  40172c:	0f 1f 40 00          	nopl   0x0(%rax)

0000000000401730 <frame_dummy>:
  401730:	bf f0 ad 60 00       	mov    $0x60adf0,%edi
  401735:	48 83 3f 00          	cmpq   $0x0,(%rdi)
  401739:	75 05                	jne    401740 <frame_dummy+0x10>
  40173b:	eb 93                	jmp    4016d0 <register_tm_clones>
  40173d:	0f 1f 00             	nopl   (%rax)
  401740:	b8 00 00 00 00       	mov    $0x0,%eax
  401745:	48 85 c0             	test   %rax,%rax
  401748:	74 f1                	je     40173b <frame_dummy+0xb>
  40174a:	55                   	push   %rbp
  40174b:	48 89 e5             	mov    %rsp,%rbp
  40174e:	ff d0                	callq  *%rax
  401750:	5d                   	pop    %rbp
  401751:	e9 7a ff ff ff       	jmpq   4016d0 <register_tm_clones>
  401756:	66 2e 0f 1f 84 00 00 	nopw   %cs:0x0(%rax,%rax,1)
  40175d:	00 00 00 

0000000000401760 <_ZN32CRTPInterface_run_crtp_Benchmark8TestBodyEv>:
  401760:	48 8b 05 f9 99 20 00 	mov    0x2099f9(%rip),%rax        # 60b160 <N>
  401767:	4c 8b 05 32 9c 20 00 	mov    0x209c32(%rip),%r8        # 60b3a0 <crtpobj>
  40176e:	48 85 c0             	test   %rax,%rax
  401771:	0f 84 63 01 00 00    	je     4018da <_ZN32CRTPInterface_run_crtp_Benchmark8TestBodyEv+0x17a>
  401777:	31 f6                	xor    %esi,%esi
  401779:	66 0f 6f 1d ff 5f 00 	movdqa 0x5fff(%rip),%xmm3        # 407780 <_ZTV32CRTPInterface_run_crtp_Benchmark+0x38>
  401780:	00 
  401781:	48 8d 4e 01          	lea    0x1(%rsi),%rcx
  401785:	66 0f 6f 15 03 60 00 	movdqa 0x6003(%rip),%xmm2        # 407790 <_ZTV32CRTPInterface_run_crtp_Benchmark+0x48>
  40178c:	00 
  40178d:	48 39 c1             	cmp    %rax,%rcx
  401790:	0f 83 44 01 00 00    	jae    4018da <_ZN32CRTPInterface_run_crtp_Benchmark8TestBodyEv+0x17a>
  401796:	66 2e 0f 1f 84 00 00 	nopw   %cs:0x0(%rax,%rax,1)
  40179d:	00 00 00 
  4017a0:	48 85 c9             	test   %rcx,%rcx
  4017a3:	0f 84 21 01 00 00    	je     4018ca <_ZN32CRTPInterface_run_crtp_Benchmark8TestBodyEv+0x16a>
  4017a9:	48 8d 7e ff          	lea    -0x1(%rsi),%rdi
  4017ad:	49 8b 00             	mov    (%r8),%rax
  4017b0:	48 d1 ef             	shr    %rdi
  4017b3:	48 83 c7 01          	add    $0x1,%rdi
  4017b7:	48 83 fe 0e          	cmp    $0xe,%rsi
  4017bb:	48 8d 14 3f          	lea    (%rdi,%rdi,1),%rdx
  4017bf:	0f 86 1b 01 00 00    	jbe    4018e0 <_ZN32CRTPInterface_run_crtp_Benchmark8TestBodyEv+0x180>
  4017c5:	66 0f ef c9          	pxor   %xmm1,%xmm1
  4017c9:	66 0f 6f c3          	movdqa %xmm3,%xmm0
  4017cd:	31 f6                	xor    %esi,%esi
  4017cf:	90                   	nop
  4017d0:	48 83 c6 01          	add    $0x1,%rsi
  4017d4:	66 0f d4 c8          	paddq  %xmm0,%xmm1
  4017d8:	66 0f d4 c2          	paddq  %xmm2,%xmm0
  4017dc:	48 39 f7             	cmp    %rsi,%rdi
  4017df:	77 ef                	ja     4017d0 <_ZN32CRTPInterface_run_crtp_Benchmark8TestBodyEv+0x70>
  4017e1:	66 0f 6f c1          	movdqa %xmm1,%xmm0
  4017e5:	66 0f 73 d8 08       	psrldq $0x8,%xmm0
  4017ea:	66 0f d4 c8          	paddq  %xmm0,%xmm1
  4017ee:	66 48 0f 7e ce       	movq   %xmm1,%rsi
  4017f3:	48 01 f0             	add    %rsi,%rax
  4017f6:	48 39 d1             	cmp    %rdx,%rcx
  4017f9:	0f 84 c1 00 00 00    	je     4018c0 <_ZN32CRTPInterface_run_crtp_Benchmark8TestBodyEv+0x160>
  4017ff:	48 8d 72 01          	lea    0x1(%rdx),%rsi
  401803:	48 01 d0             	add    %rdx,%rax
  401806:	48 39 f1             	cmp    %rsi,%rcx
  401809:	0f 86 b1 00 00 00    	jbe    4018c0 <_ZN32CRTPInterface_run_crtp_Benchmark8TestBodyEv+0x160>
  40180f:	48 01 f0             	add    %rsi,%rax
  401812:	48 8d 72 02          	lea    0x2(%rdx),%rsi
  401816:	48 39 ce             	cmp    %rcx,%rsi
  401819:	0f 83 a1 00 00 00    	jae    4018c0 <_ZN32CRTPInterface_run_crtp_Benchmark8TestBodyEv+0x160>
  40181f:	48 01 f0             	add    %rsi,%rax
  401822:	48 8d 72 03          	lea    0x3(%rdx),%rsi
  401826:	48 39 f1             	cmp    %rsi,%rcx
  401829:	0f 86 91 00 00 00    	jbe    4018c0 <_ZN32CRTPInterface_run_crtp_Benchmark8TestBodyEv+0x160>
  40182f:	48 01 f0             	add    %rsi,%rax
  401832:	48 8d 72 04          	lea    0x4(%rdx),%rsi
  401836:	48 39 f1             	cmp    %rsi,%rcx
  401839:	0f 86 81 00 00 00    	jbe    4018c0 <_ZN32CRTPInterface_run_crtp_Benchmark8TestBodyEv+0x160>
  40183f:	48 01 f0             	add    %rsi,%rax
  401842:	48 8d 72 05          	lea    0x5(%rdx),%rsi
  401846:	48 39 f1             	cmp    %rsi,%rcx
  401849:	76 75                	jbe    4018c0 <_ZN32CRTPInterface_run_crtp_Benchmark8TestBodyEv+0x160>
  40184b:	48 01 f0             	add    %rsi,%rax
  40184e:	48 8d 72 06          	lea    0x6(%rdx),%rsi
  401852:	48 39 f1             	cmp    %rsi,%rcx
  401855:	76 69                	jbe    4018c0 <_ZN32CRTPInterface_run_crtp_Benchmark8TestBodyEv+0x160>
  401857:	48 01 f0             	add    %rsi,%rax
  40185a:	48 8d 72 07          	lea    0x7(%rdx),%rsi
  40185e:	48 39 f1             	cmp    %rsi,%rcx
  401861:	76 5d                	jbe    4018c0 <_ZN32CRTPInterface_run_crtp_Benchmark8TestBodyEv+0x160>
  401863:	48 01 f0             	add    %rsi,%rax
  401866:	48 8d 72 08          	lea    0x8(%rdx),%rsi
  40186a:	48 39 f1             	cmp    %rsi,%rcx
  40186d:	76 51                	jbe    4018c0 <_ZN32CRTPInterface_run_crtp_Benchmark8TestBodyEv+0x160>
  40186f:	48 01 f0             	add    %rsi,%rax
  401872:	48 8d 72 09          	lea    0x9(%rdx),%rsi
  401876:	48 39 f1             	cmp    %rsi,%rcx
  401879:	76 45                	jbe    4018c0 <_ZN32CRTPInterface_run_crtp_Benchmark8TestBodyEv+0x160>
  40187b:	48 01 f0             	add    %rsi,%rax
  40187e:	48 8d 72 0a          	lea    0xa(%rdx),%rsi
  401882:	48 39 f1             	cmp    %rsi,%rcx
  401885:	76 39                	jbe    4018c0 <_ZN32CRTPInterface_run_crtp_Benchmark8TestBodyEv+0x160>
  401887:	48 01 f0             	add    %rsi,%rax
  40188a:	48 8d 72 0b          	lea    0xb(%rdx),%rsi
  40188e:	48 39 f1             	cmp    %rsi,%rcx
  401891:	76 2d                	jbe    4018c0 <_ZN32CRTPInterface_run_crtp_Benchmark8TestBodyEv+0x160>
  401893:	48 01 f0             	add    %rsi,%rax
  401896:	48 8d 72 0c          	lea    0xc(%rdx),%rsi
  40189a:	48 39 f1             	cmp    %rsi,%rcx
  40189d:	76 21                	jbe    4018c0 <_ZN32CRTPInterface_run_crtp_Benchmark8TestBodyEv+0x160>
  40189f:	48 01 f0             	add    %rsi,%rax
  4018a2:	48 8d 72 0d          	lea    0xd(%rdx),%rsi
  4018a6:	48 39 f1             	cmp    %rsi,%rcx
  4018a9:	76 15                	jbe    4018c0 <_ZN32CRTPInterface_run_crtp_Benchmark8TestBodyEv+0x160>
  4018ab:	48 01 f0             	add    %rsi,%rax
  4018ae:	48 83 c2 0e          	add    $0xe,%rdx
  4018b2:	48 8d 34 10          	lea    (%rax,%rdx,1),%rsi
  4018b6:	48 39 d1             	cmp    %rdx,%rcx
  4018b9:	48 0f 47 c6          	cmova  %rsi,%rax
  4018bd:	0f 1f 00             	nopl   (%rax)
  4018c0:	49 89 00             	mov    %rax,(%r8)
  4018c3:	48 8b 05 96 98 20 00 	mov    0x209896(%rip),%rax        # 60b160 <N>
  4018ca:	48 89 ce             	mov    %rcx,%rsi
  4018cd:	48 8d 4e 01          	lea    0x1(%rsi),%rcx
  4018d1:	48 39 c1             	cmp    %rax,%rcx
  4018d4:	0f 82 c6 fe ff ff    	jb     4017a0 <_ZN32CRTPInterface_run_crtp_Benchmark8TestBodyEv+0x40>
  4018da:	f3 c3                	repz retq 
  4018dc:	0f 1f 40 00          	nopl   0x0(%rax)
  4018e0:	31 d2                	xor    %edx,%edx
  4018e2:	e9 18 ff ff ff       	jmpq   4017ff <_ZN32CRTPInterface_run_crtp_Benchmark8TestBodyEv+0x9f>
  4018e7:	90                   	nop
  4018e8:	0f 1f 84 00 00 00 00 	nopl   0x0(%rax,%rax,1)
  4018ef:	00 

00000000004018f0 <_ZNSs4_Rep10_M_disposeERKSaIcE.part.0>:
  4018f0:	b8 00 00 00 00       	mov    $0x0,%eax
  4018f5:	48 85 c0             	test   %rax,%rax
  4018f8:	74 16                	je     401910 <_ZNSs4_Rep10_M_disposeERKSaIcE.part.0+0x20>
  4018fa:	b8 ff ff ff ff       	mov    $0xffffffff,%eax
  4018ff:	f0 0f c1 47 10       	lock xadd %eax,0x10(%rdi)
  401904:	85 c0                	test   %eax,%eax
  401906:	7e 15                	jle    40191d <_ZNSs4_Rep10_M_disposeERKSaIcE.part.0+0x2d>
  401908:	f3 c3                	repz retq 
  40190a:	66 0f 1f 44 00 00    	nopw   0x0(%rax,%rax,1)
  401910:	8b 47 10             	mov    0x10(%rdi),%eax
  401913:	8d 50 ff             	lea    -0x1(%rax),%edx
  401916:	85 c0                	test   %eax,%eax
  401918:	89 57 10             	mov    %edx,0x10(%rdi)
  40191b:	7f eb                	jg     401908 <_ZNSs4_Rep10_M_disposeERKSaIcE.part.0+0x18>
  40191d:	e9 5e fa ff ff       	jmpq   401380 <_ZNSs4_Rep10_M_destroyERKSaIcE@plt>
  401922:	66 66 66 66 66 2e 0f 	data16 data16 data16 data16 nopw %cs:0x0(%rax,%rax,1)
  401929:	1f 84 00 00 00 00 00 

0000000000401930 <_ZN38DynamicInterface_run_dynamic_Benchmark8TestBodyEv>:
  401930:	48 8b 05 29 98 20 00 	mov    0x209829(%rip),%rax        # 60b160 <N>
  401937:	41 54                	push   %r12
  401939:	55                   	push   %rbp
  40193a:	48 8b 2d 67 9a 20 00 	mov    0x209a67(%rip),%rbp        # 60b3a8 <dynobj>
  401941:	53                   	push   %rbx
  401942:	48 85 c0             	test   %rax,%rax
  401945:	74 5e                	je     4019a5 <_ZN38DynamicInterface_run_dynamic_Benchmark8TestBodyEv+0x75>
  401947:	45 31 e4             	xor    %r12d,%r12d
  40194a:	49 83 c4 01          	add    $0x1,%r12
  40194e:	49 39 c4             	cmp    %rax,%r12
  401951:	73 52                	jae    4019a5 <_ZN38DynamicInterface_run_dynamic_Benchmark8TestBodyEv+0x75>
  401953:	0f 1f 44 00 00       	nopl   0x0(%rax,%rax,1)
  401958:	4d 85 e4             	test   %r12,%r12
  40195b:	74 ed                	je     40194a <_ZN38DynamicInterface_run_dynamic_Benchmark8TestBodyEv+0x1a>
  40195d:	31 db                	xor    %ebx,%ebx
  40195f:	eb 14                	jmp    401975 <_ZN38DynamicInterface_run_dynamic_Benchmark8TestBodyEv+0x45>
  401961:	0f 1f 80 00 00 00 00 	nopl   0x0(%rax)
  401968:	48 01 5d 08          	add    %rbx,0x8(%rbp)
  40196c:	48 83 c3 01          	add    $0x1,%rbx
  401970:	4c 39 e3             	cmp    %r12,%rbx
  401973:	74 20                	je     401995 <_ZN38DynamicInterface_run_dynamic_Benchmark8TestBodyEv+0x65>
  401975:	48 8b 45 00          	mov    0x0(%rbp),%rax
  401979:	48 8b 00             	mov    (%rax),%rax
  40197c:	48 3d 30 1a 40 00    	cmp    $0x401a30,%rax
  401982:	74 e4                	je     401968 <_ZN38DynamicInterface_run_dynamic_Benchmark8TestBodyEv+0x38>
  401984:	48 89 de             	mov    %rbx,%rsi
  401987:	48 83 c3 01          	add    $0x1,%rbx
  40198b:	48 89 ef             	mov    %rbp,%rdi
  40198e:	ff d0                	callq  *%rax
  401990:	4c 39 e3             	cmp    %r12,%rbx
  401993:	75 e0                	jne    401975 <_ZN38DynamicInterface_run_dynamic_Benchmark8TestBodyEv+0x45>
  401995:	48 8b 05 c4 97 20 00 	mov    0x2097c4(%rip),%rax        # 60b160 <N>
  40199c:	49 83 c4 01          	add    $0x1,%r12
  4019a0:	49 39 c4             	cmp    %rax,%r12
  4019a3:	72 b3                	jb     401958 <_ZN38DynamicInterface_run_dynamic_Benchmark8TestBodyEv+0x28>
  4019a5:	5b                   	pop    %rbx
  4019a6:	5d                   	pop    %rbp
  4019a7:	41 5c                	pop    %r12
  4019a9:	c3                   	retq   
  4019aa:	66 0f 1f 44 00 00    	nopw   0x0(%rax,%rax,1)

00000000004019b0 <_Z11run_dynamicP16DynamicInterface>:
  4019b0:	48 8b 05 a9 97 20 00 	mov    0x2097a9(%rip),%rax        # 60b160 <N>
  4019b7:	48 85 c0             	test   %rax,%rax
  4019ba:	74 65                	je     401a21 <_Z11run_dynamicP16DynamicInterface+0x71>
  4019bc:	41 54                	push   %r12
  4019be:	55                   	push   %rbp
  4019bf:	45 31 e4             	xor    %r12d,%r12d
  4019c2:	53                   	push   %rbx
  4019c3:	48 89 fd             	mov    %rdi,%rbp
  4019c6:	49 83 c4 01          	add    $0x1,%r12
  4019ca:	49 39 c4             	cmp    %rax,%r12
  4019cd:	73 4e                	jae    401a1d <_Z11run_dynamicP16DynamicInterface+0x6d>
  4019cf:	90                   	nop
  4019d0:	4d 85 e4             	test   %r12,%r12
  4019d3:	74 f1                	je     4019c6 <_Z11run_dynamicP16DynamicInterface+0x16>
  4019d5:	31 db                	xor    %ebx,%ebx
  4019d7:	eb 14                	jmp    4019ed <_Z11run_dynamicP16DynamicInterface+0x3d>
  4019d9:	0f 1f 80 00 00 00 00 	nopl   0x0(%rax)
  4019e0:	48 01 5d 08          	add    %rbx,0x8(%rbp)
  4019e4:	48 83 c3 01          	add    $0x1,%rbx
  4019e8:	4c 39 e3             	cmp    %r12,%rbx
  4019eb:	74 20                	je     401a0d <_Z11run_dynamicP16DynamicInterface+0x5d>
  4019ed:	48 8b 45 00          	mov    0x0(%rbp),%rax
  4019f1:	48 8b 00             	mov    (%rax),%rax
  4019f4:	48 3d 30 1a 40 00    	cmp    $0x401a30,%rax
  4019fa:	74 e4                	je     4019e0 <_Z11run_dynamicP16DynamicInterface+0x30>
  4019fc:	48 89 de             	mov    %rbx,%rsi
  4019ff:	48 83 c3 01          	add    $0x1,%rbx
  401a03:	48 89 ef             	mov    %rbp,%rdi
  401a06:	ff d0                	callq  *%rax
  401a08:	4c 39 e3             	cmp    %r12,%rbx
  401a0b:	75 e0                	jne    4019ed <_Z11run_dynamicP16DynamicInterface+0x3d>
  401a0d:	48 8b 05 4c 97 20 00 	mov    0x20974c(%rip),%rax        # 60b160 <N>
  401a14:	49 83 c4 01          	add    $0x1,%r12
  401a18:	49 39 c4             	cmp    %rax,%r12
  401a1b:	72 b3                	jb     4019d0 <_Z11run_dynamicP16DynamicInterface+0x20>
  401a1d:	5b                   	pop    %rbx
  401a1e:	5d                   	pop    %rbp
  401a1f:	41 5c                	pop    %r12
  401a21:	f3 c3                	repz retq 
  401a23:	66 2e 0f 1f 84 00 00 	nopw   %cs:0x0(%rax,%rax,1)
  401a2a:	00 00 00 
  401a2d:	0f 1f 00             	nopl   (%rax)

0000000000401a30 <_ZN21DynamicImplementation4tickEm>:
  401a30:	48 01 77 08          	add    %rsi,0x8(%rdi)
  401a34:	c3                   	retq   
  401a35:	66 2e 0f 1f 84 00 00 	nopw   %cs:0x0(%rax,%rax,1)
  401a3c:	00 00 00 
  401a3f:	90                   	nop

0000000000401a40 <_ZN21DynamicImplementation8getvalueEv>:
  401a40:	48 8b 47 08          	mov    0x8(%rdi),%rax
  401a44:	c3                   	retq   
  401a45:	66 2e 0f 1f 84 00 00 	nopw   %cs:0x0(%rax,%rax,1)
  401a4c:	00 00 00 
  401a4f:	90                   	nop

0000000000401a50 <_ZN5hayai4Test5SetUpEv>:
  401a50:	f3 c3                	repz retq 
  401a52:	66 2e 0f 1f 84 00 00 	nopw   %cs:0x0(%rax,%rax,1)
  401a59:	00 00 00 
  401a5c:	0f 1f 40 00          	nopl   0x0(%rax)

0000000000401a60 <_ZN5hayai4Test8TearDownEv>:
  401a60:	f3 c3                	repz retq 
  401a62:	66 2e 0f 1f 84 00 00 	nopw   %cs:0x0(%rax,%rax,1)
  401a69:	00 00 00 
  401a6c:	0f 1f 40 00          	nopl   0x0(%rax)

0000000000401a70 <_ZN5hayai4TestD1Ev>:
  401a70:	f3 c3                	repz retq 
  401a72:	66 2e 0f 1f 84 00 00 	nopw   %cs:0x0(%rax,%rax,1)
  401a79:	00 00 00 
  401a7c:	0f 1f 40 00          	nopl   0x0(%rax)

0000000000401a80 <_ZN5hayai4Test8TestBodyEv>:
  401a80:	f3 c3                	repz retq 
  401a82:	66 2e 0f 1f 84 00 00 	nopw   %cs:0x0(%rax,%rax,1)
  401a89:	00 00 00 
  401a8c:	0f 1f 40 00          	nopl   0x0(%rax)

0000000000401a90 <_ZN32CRTPInterface_run_crtp_BenchmarkD1Ev>:
  401a90:	f3 c3                	repz retq 
  401a92:	66 2e 0f 1f 84 00 00 	nopw   %cs:0x0(%rax,%rax,1)
  401a99:	00 00 00 
  401a9c:	0f 1f 40 00          	nopl   0x0(%rax)

0000000000401aa0 <_ZN5hayai18TestFactoryDefaultI32CRTPInterface_run_crtp_BenchmarkED1Ev>:
  401aa0:	f3 c3                	repz retq 
  401aa2:	66 2e 0f 1f 84 00 00 	nopw   %cs:0x0(%rax,%rax,1)
  401aa9:	00 00 00 
  401aac:	0f 1f 40 00          	nopl   0x0(%rax)

0000000000401ab0 <_ZN38DynamicInterface_run_dynamic_BenchmarkD1Ev>:
  401ab0:	f3 c3                	repz retq 
  401ab2:	66 2e 0f 1f 84 00 00 	nopw   %cs:0x0(%rax,%rax,1)
  401ab9:	00 00 00 
  401abc:	0f 1f 40 00          	nopl   0x0(%rax)

0000000000401ac0 <_ZN5hayai18TestFactoryDefaultI38DynamicInterface_run_dynamic_BenchmarkED1Ev>:
  401ac0:	f3 c3                	repz retq 
  401ac2:	66 2e 0f 1f 84 00 00 	nopw   %cs:0x0(%rax,%rax,1)
  401ac9:	00 00 00 
  401acc:	0f 1f 40 00          	nopl   0x0(%rax)

0000000000401ad0 <_ZN32CRTPInterface_run_crtp_BenchmarkD0Ev>:
  401ad0:	be 08 00 00 00       	mov    $0x8,%esi
  401ad5:	e9 e6 f7 ff ff       	jmpq   4012c0 <_ZdlPvm@plt>
  401ada:	66 0f 1f 44 00 00    	nopw   0x0(%rax,%rax,1)

0000000000401ae0 <_ZN5hayai4TestD0Ev>:
  401ae0:	be 08 00 00 00       	mov    $0x8,%esi
  401ae5:	e9 d6 f7 ff ff       	jmpq   4012c0 <_ZdlPvm@plt>
  401aea:	66 0f 1f 44 00 00    	nopw   0x0(%rax,%rax,1)

0000000000401af0 <_ZN38DynamicInterface_run_dynamic_BenchmarkD0Ev>:
  401af0:	be 08 00 00 00       	mov    $0x8,%esi
  401af5:	e9 c6 f7 ff ff       	jmpq   4012c0 <_ZdlPvm@plt>
  401afa:	66 0f 1f 44 00 00    	nopw   0x0(%rax,%rax,1)

0000000000401b00 <_ZN5hayai18TestFactoryDefaultI38DynamicInterface_run_dynamic_BenchmarkED0Ev>:
  401b00:	be 08 00 00 00       	mov    $0x8,%esi
  401b05:	e9 b6 f7 ff ff       	jmpq   4012c0 <_ZdlPvm@plt>
  401b0a:	66 0f 1f 44 00 00    	nopw   0x0(%rax,%rax,1)

0000000000401b10 <_ZN5hayai18TestFactoryDefaultI32CRTPInterface_run_crtp_BenchmarkED0Ev>:
  401b10:	be 08 00 00 00       	mov    $0x8,%esi
  401b15:	e9 a6 f7 ff ff       	jmpq   4012c0 <_ZdlPvm@plt>
  401b1a:	66 0f 1f 44 00 00    	nopw   0x0(%rax,%rax,1)

0000000000401b20 <_ZNSt10unique_ptrI21DynamicImplementationSt14default_deleteIS0_EED1Ev>:
  401b20:	48 8b 3f             	mov    (%rdi),%rdi
  401b23:	48 85 ff             	test   %rdi,%rdi
  401b26:	74 10                	je     401b38 <_ZNSt10unique_ptrI21DynamicImplementationSt14default_deleteIS0_EED1Ev+0x18>
  401b28:	be 10 00 00 00       	mov    $0x10,%esi
  401b2d:	e9 8e f7 ff ff       	jmpq   4012c0 <_ZdlPvm@plt>
  401b32:	66 0f 1f 44 00 00    	nopw   0x0(%rax,%rax,1)
  401b38:	f3 c3                	repz retq 
  401b3a:	66 0f 1f 44 00 00    	nopw   0x0(%rax,%rax,1)

0000000000401b40 <_ZNSt10unique_ptrI18CRTPImplementationSt14default_deleteIS0_EED1Ev>:
  401b40:	48 8b 3f             	mov    (%rdi),%rdi
  401b43:	48 85 ff             	test   %rdi,%rdi
  401b46:	74 10                	je     401b58 <_ZNSt10unique_ptrI18CRTPImplementationSt14default_deleteIS0_EED1Ev+0x18>
  401b48:	be 08 00 00 00       	mov    $0x8,%esi
  401b4d:	e9 6e f7 ff ff       	jmpq   4012c0 <_ZdlPvm@plt>
  401b52:	66 0f 1f 44 00 00    	nopw   0x0(%rax,%rax,1)
  401b58:	f3 c3                	repz retq 
  401b5a:	66 0f 1f 44 00 00    	nopw   0x0(%rax,%rax,1)

0000000000401b60 <_ZN5hayai18TestFactoryDefaultI38DynamicInterface_run_dynamic_BenchmarkE10CreateTestEv>:
  401b60:	48 83 ec 08          	sub    $0x8,%rsp
  401b64:	bf 08 00 00 00       	mov    $0x8,%edi
  401b69:	e8 02 f9 ff ff       	callq  401470 <_Znwm@plt>
  401b6e:	48 c7 00 f8 76 40 00 	movq   $0x4076f8,(%rax)
  401b75:	48 83 c4 08          	add    $0x8,%rsp
  401b79:	c3                   	retq   
  401b7a:	66 0f 1f 44 00 00    	nopw   0x0(%rax,%rax,1)

0000000000401b80 <_ZN5hayai18TestFactoryDefaultI32CRTPInterface_run_crtp_BenchmarkE10CreateTestEv>:
  401b80:	48 83 ec 08          	sub    $0x8,%rsp
  401b84:	bf 08 00 00 00       	mov    $0x8,%edi
  401b89:	e8 e2 f8 ff ff       	callq  401470 <_Znwm@plt>
  401b8e:	48 c7 00 58 77 40 00 	movq   $0x407758,(%rax)
  401b95:	48 83 c4 08          	add    $0x8,%rsp
  401b99:	c3                   	retq   
  401b9a:	66 0f 1f 44 00 00    	nopw   0x0(%rax,%rax,1)

0000000000401ba0 <_ZN5hayai11BenchmarkerD1Ev>:
  401ba0:	41 56                	push   %r14
  401ba2:	41 55                	push   %r13
  401ba4:	49 89 fe             	mov    %rdi,%r14
  401ba7:	41 54                	push   %r12
  401ba9:	55                   	push   %rbp
  401baa:	45 31 e4             	xor    %r12d,%r12d
  401bad:	53                   	push   %rbx
  401bae:	48 83 ec 10          	sub    $0x10,%rsp
  401bb2:	48 8b 6f 20          	mov    0x20(%rdi),%rbp
  401bb6:	48 2b 6f 18          	sub    0x18(%rdi),%rbp
  401bba:	49 89 ed             	mov    %rbp,%r13
  401bbd:	48 83 ed 08          	sub    $0x8,%rbp
  401bc1:	49 c1 fd 03          	sar    $0x3,%r13
  401bc5:	eb 78                	jmp    401c3f <_ZN5hayai11BenchmarkerD1Ev+0x9f>
  401bc7:	66 0f 1f 84 00 00 00 	nopw   0x0(%rax,%rax,1)
  401bce:	00 00 
  401bd0:	49 8b 46 18          	mov    0x18(%r14),%rax
  401bd4:	48 8b 1c 28          	mov    (%rax,%rbp,1),%rbx
  401bd8:	48 85 db             	test   %rbx,%rbx
  401bdb:	74 5a                	je     401c37 <_ZN5hayai11BenchmarkerD1Ev+0x97>
  401bdd:	48 8b 7b 20          	mov    0x20(%rbx),%rdi
  401be1:	48 85 ff             	test   %rdi,%rdi
  401be4:	74 06                	je     401bec <_ZN5hayai11BenchmarkerD1Ev+0x4c>
  401be6:	48 8b 07             	mov    (%rdi),%rax
  401be9:	ff 50 08             	callq  *0x8(%rax)
  401bec:	48 8b 43 28          	mov    0x28(%rbx),%rax
  401bf0:	48 8d 78 e8          	lea    -0x18(%rax),%rdi
  401bf4:	48 81 ff 60 b3 60 00 	cmp    $0x60b360,%rdi
  401bfb:	0f 85 87 01 00 00    	jne    401d88 <_ZN5hayai11BenchmarkerD1Ev+0x1e8>
  401c01:	48 8b 43 08          	mov    0x8(%rbx),%rax
  401c05:	48 8d 78 e8          	lea    -0x18(%rax),%rdi
  401c09:	48 81 ff 60 b3 60 00 	cmp    $0x60b360,%rdi
  401c10:	0f 85 42 01 00 00    	jne    401d58 <_ZN5hayai11BenchmarkerD1Ev+0x1b8>
  401c16:	48 8b 03             	mov    (%rbx),%rax
  401c19:	48 8d 78 e8          	lea    -0x18(%rax),%rdi
  401c1d:	48 81 ff 60 b3 60 00 	cmp    $0x60b360,%rdi
  401c24:	0f 85 f6 00 00 00    	jne    401d20 <_ZN5hayai11BenchmarkerD1Ev+0x180>
  401c2a:	be 38 00 00 00       	mov    $0x38,%esi
  401c2f:	48 89 df             	mov    %rbx,%rdi
  401c32:	e8 89 f6 ff ff       	callq  4012c0 <_ZdlPvm@plt>
  401c37:	49 83 c4 01          	add    $0x1,%r12
  401c3b:	48 83 ed 08          	sub    $0x8,%rbp
  401c3f:	4d 39 e5             	cmp    %r12,%r13
  401c42:	75 8c                	jne    401bd0 <_ZN5hayai11BenchmarkerD1Ev+0x30>
  401c44:	49 8b 6e 38          	mov    0x38(%r14),%rbp
  401c48:	49 8b 5e 30          	mov    0x30(%r14),%rbx
  401c4c:	48 39 dd             	cmp    %rbx,%rbp
  401c4f:	74 53                	je     401ca4 <_ZN5hayai11BenchmarkerD1Ev+0x104>
  401c51:	b8 00 00 00 00       	mov    $0x0,%eax
  401c56:	48 85 c0             	test   %rax,%rax
  401c59:	75 0e                	jne    401c69 <_ZN5hayai11BenchmarkerD1Ev+0xc9>
  401c5b:	e9 a9 00 00 00       	jmpq   401d09 <_ZN5hayai11BenchmarkerD1Ev+0x169>
  401c60:	48 83 c3 08          	add    $0x8,%rbx
  401c64:	48 39 dd             	cmp    %rbx,%rbp
  401c67:	74 37                	je     401ca0 <_ZN5hayai11BenchmarkerD1Ev+0x100>
  401c69:	48 8b 03             	mov    (%rbx),%rax
  401c6c:	48 8d 78 e8          	lea    -0x18(%rax),%rdi
  401c70:	48 81 ff 60 b3 60 00 	cmp    $0x60b360,%rdi
  401c77:	74 e7                	je     401c60 <_ZN5hayai11BenchmarkerD1Ev+0xc0>
  401c79:	ba ff ff ff ff       	mov    $0xffffffff,%edx
  401c7e:	f0 0f c1 50 f8       	lock xadd %edx,-0x8(%rax)
  401c83:	85 d2                	test   %edx,%edx
  401c85:	7f d9                	jg     401c60 <_ZN5hayai11BenchmarkerD1Ev+0xc0>
  401c87:	48 8d 74 24 0f       	lea    0xf(%rsp),%rsi
  401c8c:	48 83 c3 08          	add    $0x8,%rbx
  401c90:	e8 eb f6 ff ff       	callq  401380 <_ZNSs4_Rep10_M_destroyERKSaIcE@plt>
  401c95:	48 39 dd             	cmp    %rbx,%rbp
  401c98:	75 cf                	jne    401c69 <_ZN5hayai11BenchmarkerD1Ev+0xc9>
  401c9a:	66 0f 1f 44 00 00    	nopw   0x0(%rax,%rax,1)
  401ca0:	49 8b 6e 30          	mov    0x30(%r14),%rbp
  401ca4:	48 85 ed             	test   %rbp,%rbp
  401ca7:	74 08                	je     401cb1 <_ZN5hayai11BenchmarkerD1Ev+0x111>
  401ca9:	48 89 ef             	mov    %rbp,%rdi
  401cac:	e8 ff f5 ff ff       	callq  4012b0 <_ZdlPv@plt>
  401cb1:	49 8b 7e 18          	mov    0x18(%r14),%rdi
  401cb5:	48 85 ff             	test   %rdi,%rdi
  401cb8:	74 05                	je     401cbf <_ZN5hayai11BenchmarkerD1Ev+0x11f>
  401cba:	e8 f1 f5 ff ff       	callq  4012b0 <_ZdlPv@plt>
  401cbf:	49 8b 3e             	mov    (%r14),%rdi
  401cc2:	48 85 ff             	test   %rdi,%rdi
  401cc5:	74 05                	je     401ccc <_ZN5hayai11BenchmarkerD1Ev+0x12c>
  401cc7:	e8 e4 f5 ff ff       	callq  4012b0 <_ZdlPv@plt>
  401ccc:	48 83 c4 10          	add    $0x10,%rsp
  401cd0:	5b                   	pop    %rbx
  401cd1:	5d                   	pop    %rbp
  401cd2:	41 5c                	pop    %r12
  401cd4:	41 5d                	pop    %r13
  401cd6:	41 5e                	pop    %r14
  401cd8:	c3                   	retq   
  401cd9:	0f 1f 80 00 00 00 00 	nopl   0x0(%rax)
  401ce0:	8b 50 f8             	mov    -0x8(%rax),%edx
  401ce3:	8d 4a ff             	lea    -0x1(%rdx),%ecx
  401ce6:	85 d2                	test   %edx,%edx
  401ce8:	89 48 f8             	mov    %ecx,-0x8(%rax)
  401ceb:	7f 13                	jg     401d00 <_ZN5hayai11BenchmarkerD1Ev+0x160>
  401ced:	48 8d 74 24 0f       	lea    0xf(%rsp),%rsi
  401cf2:	e8 89 f6 ff ff       	callq  401380 <_ZNSs4_Rep10_M_destroyERKSaIcE@plt>
  401cf7:	66 0f 1f 84 00 00 00 	nopw   0x0(%rax,%rax,1)
  401cfe:	00 00 
  401d00:	48 83 c3 08          	add    $0x8,%rbx
  401d04:	48 39 dd             	cmp    %rbx,%rbp
  401d07:	74 97                	je     401ca0 <_ZN5hayai11BenchmarkerD1Ev+0x100>
  401d09:	48 8b 03             	mov    (%rbx),%rax
  401d0c:	48 8d 78 e8          	lea    -0x18(%rax),%rdi
  401d10:	48 81 ff 60 b3 60 00 	cmp    $0x60b360,%rdi
  401d17:	74 e7                	je     401d00 <_ZN5hayai11BenchmarkerD1Ev+0x160>
  401d19:	eb c5                	jmp    401ce0 <_ZN5hayai11BenchmarkerD1Ev+0x140>
  401d1b:	0f 1f 44 00 00       	nopl   0x0(%rax,%rax,1)
  401d20:	ba 00 00 00 00       	mov    $0x0,%edx
  401d25:	48 85 d2             	test   %rdx,%rdx
  401d28:	0f 84 aa 00 00 00    	je     401dd8 <_ZN5hayai11BenchmarkerD1Ev+0x238>
  401d2e:	ba ff ff ff ff       	mov    $0xffffffff,%edx
  401d33:	f0 0f c1 50 f8       	lock xadd %edx,-0x8(%rax)
  401d38:	89 d0                	mov    %edx,%eax
  401d3a:	85 c0                	test   %eax,%eax
  401d3c:	0f 8f e8 fe ff ff    	jg     401c2a <_ZN5hayai11BenchmarkerD1Ev+0x8a>
  401d42:	48 8d 74 24 0f       	lea    0xf(%rsp),%rsi
  401d47:	e8 34 f6 ff ff       	callq  401380 <_ZNSs4_Rep10_M_destroyERKSaIcE@plt>
  401d4c:	e9 d9 fe ff ff       	jmpq   401c2a <_ZN5hayai11BenchmarkerD1Ev+0x8a>
  401d51:	0f 1f 80 00 00 00 00 	nopl   0x0(%rax)
  401d58:	ba 00 00 00 00       	mov    $0x0,%edx
  401d5d:	48 85 d2             	test   %rdx,%rdx
  401d60:	74 66                	je     401dc8 <_ZN5hayai11BenchmarkerD1Ev+0x228>
  401d62:	ba ff ff ff ff       	mov    $0xffffffff,%edx
  401d67:	f0 0f c1 50 f8       	lock xadd %edx,-0x8(%rax)
  401d6c:	89 d0                	mov    %edx,%eax
  401d6e:	85 c0                	test   %eax,%eax
  401d70:	0f 8f a0 fe ff ff    	jg     401c16 <_ZN5hayai11BenchmarkerD1Ev+0x76>
  401d76:	48 8d 74 24 0f       	lea    0xf(%rsp),%rsi
  401d7b:	e8 00 f6 ff ff       	callq  401380 <_ZNSs4_Rep10_M_destroyERKSaIcE@plt>
  401d80:	e9 91 fe ff ff       	jmpq   401c16 <_ZN5hayai11BenchmarkerD1Ev+0x76>
  401d85:	0f 1f 00             	nopl   (%rax)
  401d88:	ba 00 00 00 00       	mov    $0x0,%edx
  401d8d:	48 85 d2             	test   %rdx,%rdx
  401d90:	74 26                	je     401db8 <_ZN5hayai11BenchmarkerD1Ev+0x218>
  401d92:	ba ff ff ff ff       	mov    $0xffffffff,%edx
  401d97:	f0 0f c1 50 f8       	lock xadd %edx,-0x8(%rax)
  401d9c:	89 d0                	mov    %edx,%eax
  401d9e:	85 c0                	test   %eax,%eax
  401da0:	0f 8f 5b fe ff ff    	jg     401c01 <_ZN5hayai11BenchmarkerD1Ev+0x61>
  401da6:	48 8d 74 24 0f       	lea    0xf(%rsp),%rsi
  401dab:	e8 d0 f5 ff ff       	callq  401380 <_ZNSs4_Rep10_M_destroyERKSaIcE@plt>
  401db0:	e9 4c fe ff ff       	jmpq   401c01 <_ZN5hayai11BenchmarkerD1Ev+0x61>
  401db5:	0f 1f 00             	nopl   (%rax)
  401db8:	8b 50 f8             	mov    -0x8(%rax),%edx
  401dbb:	8d 4a ff             	lea    -0x1(%rdx),%ecx
  401dbe:	89 48 f8             	mov    %ecx,-0x8(%rax)
  401dc1:	89 d0                	mov    %edx,%eax
  401dc3:	eb d9                	jmp    401d9e <_ZN5hayai11BenchmarkerD1Ev+0x1fe>
  401dc5:	0f 1f 00             	nopl   (%rax)
  401dc8:	8b 50 f8             	mov    -0x8(%rax),%edx
  401dcb:	8d 4a ff             	lea    -0x1(%rdx),%ecx
  401dce:	89 48 f8             	mov    %ecx,-0x8(%rax)
  401dd1:	89 d0                	mov    %edx,%eax
  401dd3:	eb 99                	jmp    401d6e <_ZN5hayai11BenchmarkerD1Ev+0x1ce>
  401dd5:	0f 1f 00             	nopl   (%rax)
  401dd8:	8b 50 f8             	mov    -0x8(%rax),%edx
  401ddb:	8d 4a ff             	lea    -0x1(%rdx),%ecx
  401dde:	89 48 f8             	mov    %ecx,-0x8(%rax)
  401de1:	89 d0                	mov    %edx,%eax
  401de3:	e9 52 ff ff ff       	jmpq   401d3a <_ZN5hayai11BenchmarkerD1Ev+0x19a>
  401de8:	0f 1f 84 00 00 00 00 	nopl   0x0(%rax,%rax,1)
  401def:	00 

0000000000401df0 <_ZN5hayai11Benchmarker8InstanceEv>:
  401df0:	80 3d c1 95 20 00 00 	cmpb   $0x0,0x2095c1(%rip)        # 60b3b8 <_ZGVZN5hayai11Benchmarker8InstanceEvE9singleton>
  401df7:	74 07                	je     401e00 <_ZN5hayai11Benchmarker8InstanceEv+0x10>
  401df9:	b8 c0 b3 60 00       	mov    $0x60b3c0,%eax
  401dfe:	c3                   	retq   
  401dff:	90                   	nop
  401e00:	48 83 ec 08          	sub    $0x8,%rsp
  401e04:	bf b8 b3 60 00       	mov    $0x60b3b8,%edi
  401e09:	e8 72 f4 ff ff       	callq  401280 <__cxa_guard_acquire@plt>
  401e0e:	85 c0                	test   %eax,%eax
  401e10:	0f 84 81 00 00 00    	je     401e97 <_ZN5hayai11Benchmarker8InstanceEv+0xa7>
  401e16:	bf b8 b3 60 00       	mov    $0x60b3b8,%edi
  401e1b:	48 c7 05 9a 95 20 00 	movq   $0x0,0x20959a(%rip)        # 60b3c0 <_ZZN5hayai11Benchmarker8InstanceEvE9singleton>
  401e22:	00 00 00 00 
  401e26:	48 c7 05 97 95 20 00 	movq   $0x0,0x209597(%rip)        # 60b3c8 <_ZZN5hayai11Benchmarker8InstanceEvE9singleton+0x8>
  401e2d:	00 00 00 00 
  401e31:	48 c7 05 94 95 20 00 	movq   $0x0,0x209594(%rip)        # 60b3d0 <_ZZN5hayai11Benchmarker8InstanceEvE9singleton+0x10>
  401e38:	00 00 00 00 
  401e3c:	48 c7 05 91 95 20 00 	movq   $0x0,0x209591(%rip)        # 60b3d8 <_ZZN5hayai11Benchmarker8InstanceEvE9singleton+0x18>
  401e43:	00 00 00 00 
  401e47:	48 c7 05 8e 95 20 00 	movq   $0x0,0x20958e(%rip)        # 60b3e0 <_ZZN5hayai11Benchmarker8InstanceEvE9singleton+0x20>
  401e4e:	00 00 00 00 
  401e52:	48 c7 05 8b 95 20 00 	movq   $0x0,0x20958b(%rip)        # 60b3e8 <_ZZN5hayai11Benchmarker8InstanceEvE9singleton+0x28>
  401e59:	00 00 00 00 
  401e5d:	48 c7 05 88 95 20 00 	movq   $0x0,0x209588(%rip)        # 60b3f0 <_ZZN5hayai11Benchmarker8InstanceEvE9singleton+0x30>
  401e64:	00 00 00 00 
  401e68:	48 c7 05 85 95 20 00 	movq   $0x0,0x209585(%rip)        # 60b3f8 <_ZZN5hayai11Benchmarker8InstanceEvE9singleton+0x38>
  401e6f:	00 00 00 00 
  401e73:	48 c7 05 82 95 20 00 	movq   $0x0,0x209582(%rip)        # 60b400 <_ZZN5hayai11Benchmarker8InstanceEvE9singleton+0x40>
  401e7a:	00 00 00 00 
  401e7e:	e8 0d f5 ff ff       	callq  401390 <__cxa_guard_release@plt>
  401e83:	ba 48 74 40 00       	mov    $0x407448,%edx
  401e88:	be c0 b3 60 00       	mov    $0x60b3c0,%esi
  401e8d:	bf a0 1b 40 00       	mov    $0x401ba0,%edi
  401e92:	e8 89 f4 ff ff       	callq  401320 <__cxa_atexit@plt>
  401e97:	b8 c0 b3 60 00       	mov    $0x60b3c0,%eax
  401e9c:	48 83 c4 08          	add    $0x8,%rsp
  401ea0:	c3                   	retq   
  401ea1:	66 2e 0f 1f 84 00 00 	nopw   %cs:0x0(%rax,%rax,1)
  401ea8:	00 00 00 
  401eab:	0f 1f 44 00 00       	nopl   0x0(%rax,%rax,1)

0000000000401eb0 <_ZNSt6vectorIPN5hayai14TestDescriptorESaIS2_EE19_M_emplace_back_auxIIRKS2_EEEvDpOT_>:
  401eb0:	41 57                	push   %r15
  401eb2:	41 56                	push   %r14
  401eb4:	49 89 ff             	mov    %rdi,%r15
  401eb7:	41 55                	push   %r13
  401eb9:	41 54                	push   %r12
  401ebb:	49 89 f5             	mov    %rsi,%r13
  401ebe:	55                   	push   %rbp
  401ebf:	53                   	push   %rbx
  401ec0:	48 83 ec 08          	sub    $0x8,%rsp
  401ec4:	48 8b 47 08          	mov    0x8(%rdi),%rax
  401ec8:	48 2b 07             	sub    (%rdi),%rax
  401ecb:	48 c1 f8 03          	sar    $0x3,%rax
  401ecf:	48 85 c0             	test   %rax,%rax
  401ed2:	74 1c                	je     401ef0 <_ZNSt6vectorIPN5hayai14TestDescriptorESaIS2_EE19_M_emplace_back_auxIIRKS2_EEEvDpOT_+0x40>
  401ed4:	48 8d 14 00          	lea    (%rax,%rax,1),%rdx
  401ed8:	48 39 d0             	cmp    %rdx,%rax
  401edb:	0f 86 8c 00 00 00    	jbe    401f6d <_ZNSt6vectorIPN5hayai14TestDescriptorESaIS2_EE19_M_emplace_back_auxIIRKS2_EEEvDpOT_+0xbd>
  401ee1:	49 c7 c6 f8 ff ff ff 	mov    $0xfffffffffffffff8,%r14
  401ee8:	eb 0c                	jmp    401ef6 <_ZNSt6vectorIPN5hayai14TestDescriptorESaIS2_EE19_M_emplace_back_auxIIRKS2_EEEvDpOT_+0x46>
  401eea:	66 0f 1f 44 00 00    	nopw   0x0(%rax,%rax,1)
  401ef0:	41 be 08 00 00 00    	mov    $0x8,%r14d
  401ef6:	4c 89 f7             	mov    %r14,%rdi
  401ef9:	e8 72 f5 ff ff       	callq  401470 <_Znwm@plt>
  401efe:	48 89 c3             	mov    %rax,%rbx
  401f01:	4d 8b 27             	mov    (%r15),%r12
  401f04:	49 8b 6f 08          	mov    0x8(%r15),%rbp
  401f08:	48 89 d8             	mov    %rbx,%rax
  401f0b:	49 8b 55 00          	mov    0x0(%r13),%rdx
  401f0f:	4c 29 e5             	sub    %r12,%rbp
  401f12:	48 01 e8             	add    %rbp,%rax
  401f15:	74 03                	je     401f1a <_ZNSt6vectorIPN5hayai14TestDescriptorESaIS2_EE19_M_emplace_back_auxIIRKS2_EEEvDpOT_+0x6a>
  401f17:	48 89 10             	mov    %rdx,(%rax)
  401f1a:	48 89 e8             	mov    %rbp,%rax
  401f1d:	48 c1 f8 03          	sar    $0x3,%rax
  401f21:	48 85 c0             	test   %rax,%rax
  401f24:	75 32                	jne    401f58 <_ZNSt6vectorIPN5hayai14TestDescriptorESaIS2_EE19_M_emplace_back_auxIIRKS2_EEEvDpOT_+0xa8>
  401f26:	4d 85 e4             	test   %r12,%r12
  401f29:	48 8d 6c 2b 08       	lea    0x8(%rbx,%rbp,1),%rbp
  401f2e:	74 08                	je     401f38 <_ZNSt6vectorIPN5hayai14TestDescriptorESaIS2_EE19_M_emplace_back_auxIIRKS2_EEEvDpOT_+0x88>
  401f30:	4c 89 e7             	mov    %r12,%rdi
  401f33:	e8 78 f3 ff ff       	callq  4012b0 <_ZdlPv@plt>
  401f38:	49 89 1f             	mov    %rbx,(%r15)
  401f3b:	4c 01 f3             	add    %r14,%rbx
  401f3e:	49 89 6f 08          	mov    %rbp,0x8(%r15)
  401f42:	49 89 5f 10          	mov    %rbx,0x10(%r15)
  401f46:	48 83 c4 08          	add    $0x8,%rsp
  401f4a:	5b                   	pop    %rbx
  401f4b:	5d                   	pop    %rbp
  401f4c:	41 5c                	pop    %r12
  401f4e:	41 5d                	pop    %r13
  401f50:	41 5e                	pop    %r14
  401f52:	41 5f                	pop    %r15
  401f54:	c3                   	retq   
  401f55:	0f 1f 00             	nopl   (%rax)
  401f58:	48 89 ea             	mov    %rbp,%rdx
  401f5b:	4c 89 e6             	mov    %r12,%rsi
  401f5e:	48 89 df             	mov    %rbx,%rdi
  401f61:	e8 6a f4 ff ff       	callq  4013d0 <memmove@plt>
  401f66:	48 8d 6c 2b 08       	lea    0x8(%rbx,%rbp,1),%rbp
  401f6b:	eb c3                	jmp    401f30 <_ZNSt6vectorIPN5hayai14TestDescriptorESaIS2_EE19_M_emplace_back_auxIIRKS2_EEEvDpOT_+0x80>
  401f6d:	48 b9 ff ff ff ff ff 	movabs $0x1fffffffffffffff,%rcx
  401f74:	ff ff 1f 
  401f77:	48 39 ca             	cmp    %rcx,%rdx
  401f7a:	0f 87 61 ff ff ff    	ja     401ee1 <_ZNSt6vectorIPN5hayai14TestDescriptorESaIS2_EE19_M_emplace_back_auxIIRKS2_EEEvDpOT_+0x31>
  401f80:	45 31 f6             	xor    %r14d,%r14d
  401f83:	31 db                	xor    %ebx,%ebx
  401f85:	48 85 d2             	test   %rdx,%rdx
  401f88:	0f 84 73 ff ff ff    	je     401f01 <_ZNSt6vectorIPN5hayai14TestDescriptorESaIS2_EE19_M_emplace_back_auxIIRKS2_EEEvDpOT_+0x51>
  401f8e:	48 c1 e0 04          	shl    $0x4,%rax
  401f92:	49 89 c6             	mov    %rax,%r14
  401f95:	e9 5c ff ff ff       	jmpq   401ef6 <_ZNSt6vectorIPN5hayai14TestDescriptorESaIS2_EE19_M_emplace_back_auxIIRKS2_EEEvDpOT_+0x46>
  401f9a:	66 0f 1f 44 00 00    	nopw   0x0(%rax,%rax,1)

0000000000401fa0 <_ZN5hayai11Benchmarker12RegisterTestEPKcS2_mmPNS_11TestFactoryESs>:
  401fa0:	41 57                	push   %r15
  401fa2:	41 56                	push   %r14
  401fa4:	4d 89 c7             	mov    %r8,%r15
  401fa7:	41 55                	push   %r13
  401fa9:	41 54                	push   %r12
  401fab:	49 89 d5             	mov    %rdx,%r13
  401fae:	55                   	push   %rbp
  401faf:	53                   	push   %rbx
  401fb0:	48 89 f5             	mov    %rsi,%rbp
  401fb3:	49 89 ce             	mov    %rcx,%r14
  401fb6:	4c 89 cb             	mov    %r9,%rbx
  401fb9:	45 31 e4             	xor    %r12d,%r12d
  401fbc:	48 83 ec 38          	sub    $0x38,%rsp
  401fc0:	48 89 7c 24 08       	mov    %rdi,0x8(%rsp)
  401fc5:	48 89 f7             	mov    %rsi,%rdi
  401fc8:	e8 a3 f3 ff ff       	callq  401370 <strlen@plt>
  401fcd:	48 83 f8 08          	cmp    $0x8,%rax
  401fd1:	76 1c                	jbe    401fef <_ZN5hayai11Benchmarker12RegisterTestEPKcS2_mmPNS_11TestFactoryESs+0x4f>
  401fd3:	48 8b 35 8e 91 20 00 	mov    0x20918e(%rip),%rsi        # 60b168 <_ZZN5hayai11Benchmarker12RegisterTestEPKcS2_mmPNS_11TestFactoryESsE14disabledPrefix>
  401fda:	ba 09 00 00 00       	mov    $0x9,%edx
  401fdf:	48 89 ef             	mov    %rbp,%rdi
  401fe2:	e8 19 f4 ff ff       	callq  401400 <memcmp@plt>
  401fe7:	85 c0                	test   %eax,%eax
  401fe9:	0f 84 c9 00 00 00    	je     4020b8 <_ZN5hayai11Benchmarker12RegisterTestEPKcS2_mmPNS_11TestFactoryESs+0x118>
  401fef:	48 8d 7c 24 20       	lea    0x20(%rsp),%rdi
  401ff4:	48 89 de             	mov    %rbx,%rsi
  401ff7:	e8 14 f3 ff ff       	callq  401310 <_ZNSsC1ERKSs@plt>
  401ffc:	bf 38 00 00 00       	mov    $0x38,%edi
  402001:	e8 6a f4 ff ff       	callq  401470 <_Znwm@plt>
  402006:	48 8b 74 24 08       	mov    0x8(%rsp),%rsi
  40200b:	48 8d 54 24 28       	lea    0x28(%rsp),%rdx
  402010:	48 89 c7             	mov    %rax,%rdi
  402013:	48 89 c3             	mov    %rax,%rbx
  402016:	e8 95 f3 ff ff       	callq  4013b0 <_ZNSsC1EPKcRKSaIcE@plt>
  40201b:	48 8d 7b 08          	lea    0x8(%rbx),%rdi
  40201f:	48 8d 54 24 28       	lea    0x28(%rsp),%rdx
  402024:	48 89 ee             	mov    %rbp,%rsi
  402027:	e8 84 f3 ff ff       	callq  4013b0 <_ZNSsC1EPKcRKSaIcE@plt>
  40202c:	48 8d 7b 28          	lea    0x28(%rbx),%rdi
  402030:	48 8d 74 24 20       	lea    0x20(%rsp),%rsi
  402035:	4c 89 6b 10          	mov    %r13,0x10(%rbx)
  402039:	4c 89 73 18          	mov    %r14,0x18(%rbx)
  40203d:	4c 89 7b 20          	mov    %r15,0x20(%rbx)
  402041:	e8 ca f2 ff ff       	callq  401310 <_ZNSsC1ERKSs@plt>
  402046:	48 8b 44 24 20       	mov    0x20(%rsp),%rax
  40204b:	44 88 63 30          	mov    %r12b,0x30(%rbx)
  40204f:	48 89 5c 24 28       	mov    %rbx,0x28(%rsp)
  402054:	48 8d 78 e8          	lea    -0x18(%rax),%rdi
  402058:	48 81 ff 60 b3 60 00 	cmp    $0x60b360,%rdi
  40205f:	0f 85 03 01 00 00    	jne    402168 <_ZN5hayai11Benchmarker12RegisterTestEPKcS2_mmPNS_11TestFactoryESs+0x1c8>
  402065:	80 3d 4c 93 20 00 00 	cmpb   $0x0,0x20934c(%rip)        # 60b3b8 <_ZGVZN5hayai11Benchmarker8InstanceEvE9singleton>
  40206c:	74 62                	je     4020d0 <_ZN5hayai11Benchmarker12RegisterTestEPKcS2_mmPNS_11TestFactoryESs+0x130>
  40206e:	48 8b 15 6b 93 20 00 	mov    0x20936b(%rip),%rdx        # 60b3e0 <_ZZN5hayai11Benchmarker8InstanceEvE9singleton+0x20>
  402075:	48 3b 15 6c 93 20 00 	cmp    0x20936c(%rip),%rdx        # 60b3e8 <_ZZN5hayai11Benchmarker8InstanceEvE9singleton+0x28>
  40207c:	0f 84 16 01 00 00    	je     402198 <_ZN5hayai11Benchmarker12RegisterTestEPKcS2_mmPNS_11TestFactoryESs+0x1f8>
  402082:	48 85 d2             	test   %rdx,%rdx
  402085:	48 8b 44 24 28       	mov    0x28(%rsp),%rax
  40208a:	74 0f                	je     40209b <_ZN5hayai11Benchmarker12RegisterTestEPKcS2_mmPNS_11TestFactoryESs+0xfb>
  40208c:	48 89 02             	mov    %rax,(%rdx)
  40208f:	48 8b 15 4a 93 20 00 	mov    0x20934a(%rip),%rdx        # 60b3e0 <_ZZN5hayai11Benchmarker8InstanceEvE9singleton+0x20>
  402096:	48 8b 44 24 28       	mov    0x28(%rsp),%rax
  40209b:	48 83 c2 08          	add    $0x8,%rdx
  40209f:	48 89 15 3a 93 20 00 	mov    %rdx,0x20933a(%rip)        # 60b3e0 <_ZZN5hayai11Benchmarker8InstanceEvE9singleton+0x20>
  4020a6:	48 83 c4 38          	add    $0x38,%rsp
  4020aa:	5b                   	pop    %rbx
  4020ab:	5d                   	pop    %rbp
  4020ac:	41 5c                	pop    %r12
  4020ae:	41 5d                	pop    %r13
  4020b0:	41 5e                	pop    %r14
  4020b2:	41 5f                	pop    %r15
  4020b4:	c3                   	retq   
  4020b5:	0f 1f 00             	nopl   (%rax)
  4020b8:	48 83 c5 09          	add    $0x9,%rbp
  4020bc:	41 bc 01 00 00 00    	mov    $0x1,%r12d
  4020c2:	e9 28 ff ff ff       	jmpq   401fef <_ZN5hayai11Benchmarker12RegisterTestEPKcS2_mmPNS_11TestFactoryESs+0x4f>
  4020c7:	66 0f 1f 84 00 00 00 	nopw   0x0(%rax,%rax,1)
  4020ce:	00 00 
  4020d0:	bf b8 b3 60 00       	mov    $0x60b3b8,%edi
  4020d5:	e8 a6 f1 ff ff       	callq  401280 <__cxa_guard_acquire@plt>
  4020da:	85 c0                	test   %eax,%eax
  4020dc:	74 90                	je     40206e <_ZN5hayai11Benchmarker12RegisterTestEPKcS2_mmPNS_11TestFactoryESs+0xce>
  4020de:	bf b8 b3 60 00       	mov    $0x60b3b8,%edi
  4020e3:	48 c7 05 d2 92 20 00 	movq   $0x0,0x2092d2(%rip)        # 60b3c0 <_ZZN5hayai11Benchmarker8InstanceEvE9singleton>
  4020ea:	00 00 00 00 
  4020ee:	48 c7 05 cf 92 20 00 	movq   $0x0,0x2092cf(%rip)        # 60b3c8 <_ZZN5hayai11Benchmarker8InstanceEvE9singleton+0x8>
  4020f5:	00 00 00 00 
  4020f9:	48 c7 05 cc 92 20 00 	movq   $0x0,0x2092cc(%rip)        # 60b3d0 <_ZZN5hayai11Benchmarker8InstanceEvE9singleton+0x10>
  402100:	00 00 00 00 
  402104:	48 c7 05 c9 92 20 00 	movq   $0x0,0x2092c9(%rip)        # 60b3d8 <_ZZN5hayai11Benchmarker8InstanceEvE9singleton+0x18>
  40210b:	00 00 00 00 
  40210f:	48 c7 05 c6 92 20 00 	movq   $0x0,0x2092c6(%rip)        # 60b3e0 <_ZZN5hayai11Benchmarker8InstanceEvE9singleton+0x20>
  402116:	00 00 00 00 
  40211a:	48 c7 05 c3 92 20 00 	movq   $0x0,0x2092c3(%rip)        # 60b3e8 <_ZZN5hayai11Benchmarker8InstanceEvE9singleton+0x28>
  402121:	00 00 00 00 
  402125:	48 c7 05 c0 92 20 00 	movq   $0x0,0x2092c0(%rip)        # 60b3f0 <_ZZN5hayai11Benchmarker8InstanceEvE9singleton+0x30>
  40212c:	00 00 00 00 
  402130:	48 c7 05 bd 92 20 00 	movq   $0x0,0x2092bd(%rip)        # 60b3f8 <_ZZN5hayai11Benchmarker8InstanceEvE9singleton+0x38>
  402137:	00 00 00 00 
  40213b:	48 c7 05 ba 92 20 00 	movq   $0x0,0x2092ba(%rip)        # 60b400 <_ZZN5hayai11Benchmarker8InstanceEvE9singleton+0x40>
  402142:	00 00 00 00 
  402146:	e8 45 f2 ff ff       	callq  401390 <__cxa_guard_release@plt>
  40214b:	ba 48 74 40 00       	mov    $0x407448,%edx
  402150:	be c0 b3 60 00       	mov    $0x60b3c0,%esi
  402155:	bf a0 1b 40 00       	mov    $0x401ba0,%edi
  40215a:	e8 c1 f1 ff ff       	callq  401320 <__cxa_atexit@plt>
  40215f:	e9 0a ff ff ff       	jmpq   40206e <_ZN5hayai11Benchmarker12RegisterTestEPKcS2_mmPNS_11TestFactoryESs+0xce>
  402164:	0f 1f 40 00          	nopl   0x0(%rax)
  402168:	ba 00 00 00 00       	mov    $0x0,%edx
  40216d:	48 85 d2             	test   %rdx,%rdx
  402170:	74 46                	je     4021b8 <_ZN5hayai11Benchmarker12RegisterTestEPKcS2_mmPNS_11TestFactoryESs+0x218>
  402172:	ba ff ff ff ff       	mov    $0xffffffff,%edx
  402177:	f0 0f c1 50 f8       	lock xadd %edx,-0x8(%rax)
  40217c:	89 d0                	mov    %edx,%eax
  40217e:	85 c0                	test   %eax,%eax
  402180:	0f 8f df fe ff ff    	jg     402065 <_ZN5hayai11Benchmarker12RegisterTestEPKcS2_mmPNS_11TestFactoryESs+0xc5>
  402186:	48 8d 74 24 1f       	lea    0x1f(%rsp),%rsi
  40218b:	e8 f0 f1 ff ff       	callq  401380 <_ZNSs4_Rep10_M_destroyERKSaIcE@plt>
  402190:	e9 d0 fe ff ff       	jmpq   402065 <_ZN5hayai11Benchmarker12RegisterTestEPKcS2_mmPNS_11TestFactoryESs+0xc5>
  402195:	0f 1f 00             	nopl   (%rax)
  402198:	48 8d 74 24 28       	lea    0x28(%rsp),%rsi
  40219d:	bf d8 b3 60 00       	mov    $0x60b3d8,%edi
  4021a2:	e8 09 fd ff ff       	callq  401eb0 <_ZNSt6vectorIPN5hayai14TestDescriptorESaIS2_EE19_M_emplace_back_auxIIRKS2_EEEvDpOT_>
  4021a7:	48 8b 44 24 28       	mov    0x28(%rsp),%rax
  4021ac:	e9 f5 fe ff ff       	jmpq   4020a6 <_ZN5hayai11Benchmarker12RegisterTestEPKcS2_mmPNS_11TestFactoryESs+0x106>
  4021b1:	0f 1f 80 00 00 00 00 	nopl   0x0(%rax)
  4021b8:	8b 50 f8             	mov    -0x8(%rax),%edx
  4021bb:	8d 4a ff             	lea    -0x1(%rdx),%ecx
  4021be:	89 48 f8             	mov    %ecx,-0x8(%rax)
  4021c1:	89 d0                	mov    %edx,%eax
  4021c3:	eb b9                	jmp    40217e <_ZN5hayai11Benchmarker12RegisterTestEPKcS2_mmPNS_11TestFactoryESs+0x1de>
  4021c5:	48 89 c5             	mov    %rax,%rbp
  4021c8:	eb 05                	jmp    4021cf <_ZN5hayai11Benchmarker12RegisterTestEPKcS2_mmPNS_11TestFactoryESs+0x22f>
  4021ca:	48 89 c3             	mov    %rax,%rbx
  4021cd:	eb 45                	jmp    402214 <_ZN5hayai11Benchmarker12RegisterTestEPKcS2_mmPNS_11TestFactoryESs+0x274>
  4021cf:	48 8b 43 08          	mov    0x8(%rbx),%rax
  4021d3:	48 8d 78 e8          	lea    -0x18(%rax),%rdi
  4021d7:	48 81 ff 60 b3 60 00 	cmp    $0x60b360,%rdi
  4021de:	74 0a                	je     4021ea <_ZN5hayai11Benchmarker12RegisterTestEPKcS2_mmPNS_11TestFactoryESs+0x24a>
  4021e0:	48 8d 74 24 28       	lea    0x28(%rsp),%rsi
  4021e5:	e8 06 f7 ff ff       	callq  4018f0 <_ZNSs4_Rep10_M_disposeERKSaIcE.part.0>
  4021ea:	48 8b 03             	mov    (%rbx),%rax
  4021ed:	48 8d 78 e8          	lea    -0x18(%rax),%rdi
  4021f1:	48 81 ff 60 b3 60 00 	cmp    $0x60b360,%rdi
  4021f8:	74 0a                	je     402204 <_ZN5hayai11Benchmarker12RegisterTestEPKcS2_mmPNS_11TestFactoryESs+0x264>
  4021fa:	48 8d 74 24 28       	lea    0x28(%rsp),%rsi
  4021ff:	e8 ec f6 ff ff       	callq  4018f0 <_ZNSs4_Rep10_M_disposeERKSaIcE.part.0>
  402204:	48 89 df             	mov    %rbx,%rdi
  402207:	be 38 00 00 00       	mov    $0x38,%esi
  40220c:	48 89 eb             	mov    %rbp,%rbx
  40220f:	e8 ac f0 ff ff       	callq  4012c0 <_ZdlPvm@plt>
  402214:	48 8b 44 24 20       	mov    0x20(%rsp),%rax
  402219:	48 8d 78 e8          	lea    -0x18(%rax),%rdi
  40221d:	48 81 ff 60 b3 60 00 	cmp    $0x60b360,%rdi
  402224:	74 0a                	je     402230 <_ZN5hayai11Benchmarker12RegisterTestEPKcS2_mmPNS_11TestFactoryESs+0x290>
  402226:	48 8d 74 24 1f       	lea    0x1f(%rsp),%rsi
  40222b:	e8 c0 f6 ff ff       	callq  4018f0 <_ZNSs4_Rep10_M_disposeERKSaIcE.part.0>
  402230:	48 89 df             	mov    %rbx,%rdi
  402233:	e8 48 f2 ff ff       	callq  401480 <_Unwind_Resume@plt>
  402238:	48 89 c5             	mov    %rax,%rbp
  40223b:	eb ad                	jmp    4021ea <_ZN5hayai11Benchmarker12RegisterTestEPKcS2_mmPNS_11TestFactoryESs+0x24a>
  40223d:	48 89 c5             	mov    %rax,%rbp
  402240:	eb c2                	jmp    402204 <_ZN5hayai11Benchmarker12RegisterTestEPKcS2_mmPNS_11TestFactoryESs+0x264>

0000000000402242 <main>:
  402242:	55                   	push   %rbp
  402243:	48 89 e5             	mov    %rsp,%rbp
  402246:	53                   	push   %rbx
  402247:	48 83 ec 18          	sub    $0x18,%rsp
  40224b:	48 8d 45 e0          	lea    -0x20(%rbp),%rax
  40224f:	48 89 c7             	mov    %rax,%rdi
  402252:	e8 bd 30 00 00       	callq  405314 <_ZN5hayai16ConsoleOutputterC1Ev>
  402257:	48 8d 45 e0          	lea    -0x20(%rbp),%rax
  40225b:	48 89 c7             	mov    %rax,%rdi
  40225e:	e8 0a 27 00 00       	callq  40496d <_ZN5hayai11Benchmarker12AddOutputterERNS_9OutputterE>
  402263:	e8 32 27 00 00       	callq  40499a <_ZN5hayai11Benchmarker11RunAllTestsEv>
  402268:	bb 00 00 00 00       	mov    $0x0,%ebx
  40226d:	48 8d 45 e0          	lea    -0x20(%rbp),%rax
  402271:	48 89 c7             	mov    %rax,%rdi
  402274:	e8 d1 50 00 00       	callq  40734a <_ZN5hayai16ConsoleOutputterD1Ev>
  402279:	89 d8                	mov    %ebx,%eax
  40227b:	eb 1a                	jmp    402297 <main+0x55>
  40227d:	48 89 c3             	mov    %rax,%rbx
  402280:	48 8d 45 e0          	lea    -0x20(%rbp),%rax
  402284:	48 89 c7             	mov    %rax,%rdi
  402287:	e8 be 50 00 00       	callq  40734a <_ZN5hayai16ConsoleOutputterD1Ev>
  40228c:	48 89 d8             	mov    %rbx,%rax
  40228f:	48 89 c7             	mov    %rax,%rdi
  402292:	e8 e9 f1 ff ff       	callq  401480 <_Unwind_Resume@plt>
  402297:	48 83 c4 18          	add    $0x18,%rsp
  40229b:	5b                   	pop    %rbx
  40229c:	5d                   	pop    %rbp
  40229d:	c3                   	retq   

000000000040229e <_Z41__static_initialization_and_destruction_0ii>:
  40229e:	55                   	push   %rbp
  40229f:	48 89 e5             	mov    %rsp,%rbp
  4022a2:	48 83 ec 10          	sub    $0x10,%rsp
  4022a6:	89 7d fc             	mov    %edi,-0x4(%rbp)
  4022a9:	89 75 f8             	mov    %esi,-0x8(%rbp)
  4022ac:	83 7d fc 01          	cmpl   $0x1,-0x4(%rbp)
  4022b0:	75 27                	jne    4022d9 <_Z41__static_initialization_and_destruction_0ii+0x3b>
  4022b2:	81 7d f8 ff ff 00 00 	cmpl   $0xffff,-0x8(%rbp)
  4022b9:	75 1e                	jne    4022d9 <_Z41__static_initialization_and_destruction_0ii+0x3b>
  4022bb:	bf 08 b4 60 00       	mov    $0x60b408,%edi
  4022c0:	e8 2b f0 ff ff       	callq  4012f0 <_ZNSt8ios_base4InitC1Ev@plt>
  4022c5:	ba 48 74 40 00       	mov    $0x407448,%edx
  4022ca:	be 08 b4 60 00       	mov    $0x60b408,%esi
  4022cf:	bf 40 13 40 00       	mov    $0x401340,%edi
  4022d4:	e8 47 f0 ff ff       	callq  401320 <__cxa_atexit@plt>
  4022d9:	c9                   	leaveq 
  4022da:	c3                   	retq   

00000000004022db <_GLOBAL__sub_I_main>:
  4022db:	55                   	push   %rbp
  4022dc:	48 89 e5             	mov    %rsp,%rbp
  4022df:	be ff ff 00 00       	mov    $0xffff,%esi
  4022e4:	bf 01 00 00 00       	mov    $0x1,%edi
  4022e9:	e8 b0 ff ff ff       	callq  40229e <_Z41__static_initialization_and_destruction_0ii>
  4022ee:	5d                   	pop    %rbp
  4022ef:	c3                   	retq   

00000000004022f0 <_ZnwmPv>:
  4022f0:	55                   	push   %rbp
  4022f1:	48 89 e5             	mov    %rsp,%rbp
  4022f4:	48 89 7d f8          	mov    %rdi,-0x8(%rbp)
  4022f8:	48 89 75 f0          	mov    %rsi,-0x10(%rbp)
  4022fc:	48 8b 45 f0          	mov    -0x10(%rbp),%rax
  402300:	5d                   	pop    %rbp
  402301:	c3                   	retq   

0000000000402302 <_ZStanSt13_Ios_FmtflagsS_>:
  402302:	55                   	push   %rbp
  402303:	48 89 e5             	mov    %rsp,%rbp
  402306:	89 7d fc             	mov    %edi,-0x4(%rbp)
  402309:	89 75 f8             	mov    %esi,-0x8(%rbp)
  40230c:	8b 55 fc             	mov    -0x4(%rbp),%edx
  40230f:	8b 45 f8             	mov    -0x8(%rbp),%eax
  402312:	21 d0                	and    %edx,%eax
  402314:	5d                   	pop    %rbp
  402315:	c3                   	retq   

0000000000402316 <_ZStorSt13_Ios_FmtflagsS_>:
  402316:	55                   	push   %rbp
  402317:	48 89 e5             	mov    %rsp,%rbp
  40231a:	89 7d fc             	mov    %edi,-0x4(%rbp)
  40231d:	89 75 f8             	mov    %esi,-0x8(%rbp)
  402320:	8b 55 fc             	mov    -0x4(%rbp),%edx
  402323:	8b 45 f8             	mov    -0x8(%rbp),%eax
  402326:	09 d0                	or     %edx,%eax
  402328:	5d                   	pop    %rbp
  402329:	c3                   	retq   

000000000040232a <_ZStcoSt13_Ios_Fmtflags>:
  40232a:	55                   	push   %rbp
  40232b:	48 89 e5             	mov    %rsp,%rbp
  40232e:	89 7d fc             	mov    %edi,-0x4(%rbp)
  402331:	8b 45 fc             	mov    -0x4(%rbp),%eax
  402334:	f7 d0                	not    %eax
  402336:	5d                   	pop    %rbp
  402337:	c3                   	retq   

0000000000402338 <_ZStoRRSt13_Ios_FmtflagsS_>:
  402338:	55                   	push   %rbp
  402339:	48 89 e5             	mov    %rsp,%rbp
  40233c:	48 83 ec 10          	sub    $0x10,%rsp
  402340:	48 89 7d f8          	mov    %rdi,-0x8(%rbp)
  402344:	89 75 f4             	mov    %esi,-0xc(%rbp)
  402347:	48 8b 45 f8          	mov    -0x8(%rbp),%rax
  40234b:	8b 00                	mov    (%rax),%eax
  40234d:	8b 55 f4             	mov    -0xc(%rbp),%edx
  402350:	89 d6                	mov    %edx,%esi
  402352:	89 c7                	mov    %eax,%edi
  402354:	e8 bd ff ff ff       	callq  402316 <_ZStorSt13_Ios_FmtflagsS_>
  402359:	89 c2                	mov    %eax,%edx
  40235b:	48 8b 45 f8          	mov    -0x8(%rbp),%rax
  40235f:	89 10                	mov    %edx,(%rax)
  402361:	48 8b 45 f8          	mov    -0x8(%rbp),%rax
  402365:	c9                   	leaveq 
  402366:	c3                   	retq   

0000000000402367 <_ZStaNRSt13_Ios_FmtflagsS_>:
  402367:	55                   	push   %rbp
  402368:	48 89 e5             	mov    %rsp,%rbp
  40236b:	48 83 ec 10          	sub    $0x10,%rsp
  40236f:	48 89 7d f8          	mov    %rdi,-0x8(%rbp)
  402373:	89 75 f4             	mov    %esi,-0xc(%rbp)
  402376:	48 8b 45 f8          	mov    -0x8(%rbp),%rax
  40237a:	8b 00                	mov    (%rax),%eax
  40237c:	8b 55 f4             	mov    -0xc(%rbp),%edx
  40237f:	89 d6                	mov    %edx,%esi
  402381:	89 c7                	mov    %eax,%edi
  402383:	e8 7a ff ff ff       	callq  402302 <_ZStanSt13_Ios_FmtflagsS_>
  402388:	89 c2                	mov    %eax,%edx
  40238a:	48 8b 45 f8          	mov    -0x8(%rbp),%rax
  40238e:	89 10                	mov    %edx,(%rax)
  402390:	48 8b 45 f8          	mov    -0x8(%rbp),%rax
  402394:	c9                   	leaveq 
  402395:	c3                   	retq   

0000000000402396 <_ZNSt8ios_base4setfESt13_Ios_FmtflagsS0_>:
  402396:	55                   	push   %rbp
  402397:	48 89 e5             	mov    %rsp,%rbp
  40239a:	48 83 ec 20          	sub    $0x20,%rsp
  40239e:	48 89 7d e8          	mov    %rdi,-0x18(%rbp)
  4023a2:	89 75 e4             	mov    %esi,-0x1c(%rbp)
  4023a5:	89 55 e0             	mov    %edx,-0x20(%rbp)
  4023a8:	48 8b 45 e8          	mov    -0x18(%rbp),%rax
  4023ac:	8b 40 18             	mov    0x18(%rax),%eax
  4023af:	89 45 fc             	mov    %eax,-0x4(%rbp)
  4023b2:	8b 45 e0             	mov    -0x20(%rbp),%eax
  4023b5:	89 c7                	mov    %eax,%edi
  4023b7:	e8 6e ff ff ff       	callq  40232a <_ZStcoSt13_Ios_Fmtflags>
  4023bc:	89 c2                	mov    %eax,%edx
  4023be:	48 8b 45 e8          	mov    -0x18(%rbp),%rax
  4023c2:	48 83 c0 18          	add    $0x18,%rax
  4023c6:	89 d6                	mov    %edx,%esi
  4023c8:	48 89 c7             	mov    %rax,%rdi
  4023cb:	e8 97 ff ff ff       	callq  402367 <_ZStaNRSt13_Ios_FmtflagsS_>
  4023d0:	8b 55 e0             	mov    -0x20(%rbp),%edx
  4023d3:	8b 45 e4             	mov    -0x1c(%rbp),%eax
  4023d6:	89 d6                	mov    %edx,%esi
  4023d8:	89 c7                	mov    %eax,%edi
  4023da:	e8 23 ff ff ff       	callq  402302 <_ZStanSt13_Ios_FmtflagsS_>
  4023df:	89 c2                	mov    %eax,%edx
  4023e1:	48 8b 45 e8          	mov    -0x18(%rbp),%rax
  4023e5:	48 83 c0 18          	add    $0x18,%rax
  4023e9:	89 d6                	mov    %edx,%esi
  4023eb:	48 89 c7             	mov    %rax,%rdi
  4023ee:	e8 45 ff ff ff       	callq  402338 <_ZStoRRSt13_Ios_FmtflagsS_>
  4023f3:	8b 45 fc             	mov    -0x4(%rbp),%eax
  4023f6:	c9                   	leaveq 
  4023f7:	c3                   	retq   

00000000004023f8 <_ZSt5fixedRSt8ios_base>:
  4023f8:	55                   	push   %rbp
  4023f9:	48 89 e5             	mov    %rsp,%rbp
  4023fc:	48 83 ec 10          	sub    $0x10,%rsp
  402400:	48 89 7d f8          	mov    %rdi,-0x8(%rbp)
  402404:	48 8b 45 f8          	mov    -0x8(%rbp),%rax
  402408:	ba 04 01 00 00       	mov    $0x104,%edx
  40240d:	be 04 00 00 00       	mov    $0x4,%esi
  402412:	48 89 c7             	mov    %rax,%rdi
  402415:	e8 7c ff ff ff       	callq  402396 <_ZNSt8ios_base4setfESt13_Ios_FmtflagsS0_>
  40241a:	48 8b 45 f8          	mov    -0x8(%rbp),%rax
  40241e:	c9                   	leaveq 
  40241f:	c3                   	retq   

0000000000402420 <_ZNSt14numeric_limitsIlE3minEv>:
  402420:	55                   	push   %rbp
  402421:	48 89 e5             	mov    %rsp,%rbp
  402424:	48 b8 00 00 00 00 00 	movabs $0x8000000000000000,%rax
  40242b:	00 00 80 
  40242e:	5d                   	pop    %rbp
  40242f:	c3                   	retq   

0000000000402430 <_ZNSt14numeric_limitsIlE3maxEv>:
  402430:	55                   	push   %rbp
  402431:	48 89 e5             	mov    %rsp,%rbp
  402434:	48 b8 ff ff ff ff ff 	movabs $0x7fffffffffffffff,%rax
  40243b:	ff ff 7f 
  40243e:	5d                   	pop    %rbp
  40243f:	c3                   	retq   

0000000000402440 <_ZSt12setprecisioni>:
  402440:	55                   	push   %rbp
  402441:	48 89 e5             	mov    %rsp,%rbp
  402444:	89 7d fc             	mov    %edi,-0x4(%rbp)
  402447:	8b 45 fc             	mov    -0x4(%rbp),%eax
  40244a:	5d                   	pop    %rbp
  40244b:	c3                   	retq   

000000000040244c <_ZSt4setwi>:
  40244c:	55                   	push   %rbp
  40244d:	48 89 e5             	mov    %rsp,%rbp
  402450:	89 7d fc             	mov    %edi,-0x4(%rbp)
  402453:	8b 45 fc             	mov    -0x4(%rbp),%eax
  402456:	5d                   	pop    %rbp
  402457:	c3                   	retq   

0000000000402458 <_ZN5hayai5Clock3NowEv>:
  402458:	55                   	push   %rbp
  402459:	48 89 e5             	mov    %rsp,%rbp
  40245c:	48 83 ec 10          	sub    $0x10,%rsp
  402460:	48 8d 45 f0          	lea    -0x10(%rbp),%rax
  402464:	be 00 00 00 00       	mov    $0x0,%esi
  402469:	48 89 c7             	mov    %rax,%rdi
  40246c:	e8 5f ee ff ff       	callq  4012d0 <gettimeofday@plt>
  402471:	48 8b 45 f0          	mov    -0x10(%rbp),%rax
  402475:	48 8b 55 f8          	mov    -0x8(%rbp),%rdx
  402479:	c9                   	leaveq 
  40247a:	c3                   	retq   

000000000040247b <_ZN5hayai5Clock8DurationERK7timevalS3_>:
  40247b:	55                   	push   %rbp
  40247c:	48 89 e5             	mov    %rsp,%rbp
  40247f:	48 89 7d f8          	mov    %rdi,-0x8(%rbp)
  402483:	48 89 75 f0          	mov    %rsi,-0x10(%rbp)
  402487:	48 8b 45 f0          	mov    -0x10(%rbp),%rax
  40248b:	48 8b 10             	mov    (%rax),%rdx
  40248e:	48 8b 45 f8          	mov    -0x8(%rbp),%rax
  402492:	48 8b 00             	mov    (%rax),%rax
  402495:	48 29 c2             	sub    %rax,%rdx
  402498:	48 89 d0             	mov    %rdx,%rax
  40249b:	48 69 d0 00 ca 9a 3b 	imul   $0x3b9aca00,%rax,%rdx
  4024a2:	48 8b 45 f0          	mov    -0x10(%rbp),%rax
  4024a6:	48 8b 48 08          	mov    0x8(%rax),%rcx
  4024aa:	48 8b 45 f8          	mov    -0x8(%rbp),%rax
  4024ae:	48 8b 40 08          	mov    0x8(%rax),%rax
  4024b2:	48 29 c1             	sub    %rax,%rcx
  4024b5:	48 89 c8             	mov    %rcx,%rax
  4024b8:	48 69 c0 e8 03 00 00 	imul   $0x3e8,%rax,%rax
  4024bf:	48 01 d0             	add    %rdx,%rax
  4024c2:	5d                   	pop    %rbp
  4024c3:	c3                   	retq   

00000000004024c4 <_ZN5hayai10TestResultC1Emmddd>:
  4024c4:	55                   	push   %rbp
  4024c5:	48 89 e5             	mov    %rsp,%rbp
  4024c8:	48 89 7d f8          	mov    %rdi,-0x8(%rbp)
  4024cc:	48 89 75 f0          	mov    %rsi,-0x10(%rbp)
  4024d0:	48 89 55 e8          	mov    %rdx,-0x18(%rbp)
  4024d4:	f2 0f 11 45 e0       	movsd  %xmm0,-0x20(%rbp)
  4024d9:	f2 0f 11 4d d8       	movsd  %xmm1,-0x28(%rbp)
  4024de:	f2 0f 11 55 d0       	movsd  %xmm2,-0x30(%rbp)
  4024e3:	48 8b 45 f8          	mov    -0x8(%rbp),%rax
  4024e7:	48 8b 55 f0          	mov    -0x10(%rbp),%rdx
  4024eb:	48 89 10             	mov    %rdx,(%rax)
  4024ee:	48 8b 45 f8          	mov    -0x8(%rbp),%rax
  4024f2:	48 8b 55 e8          	mov    -0x18(%rbp),%rdx
  4024f6:	48 89 50 08          	mov    %rdx,0x8(%rax)
  4024fa:	48 8b 55 f8          	mov    -0x8(%rbp),%rdx
  4024fe:	48 8b 45 e0          	mov    -0x20(%rbp),%rax
  402502:	48 89 42 10          	mov    %rax,0x10(%rdx)
  402506:	48 8b 55 f8          	mov    -0x8(%rbp),%rdx
  40250a:	48 8b 45 d8          	mov    -0x28(%rbp),%rax
  40250e:	48 89 42 18          	mov    %rax,0x18(%rdx)
  402512:	48 8b 55 f8          	mov    -0x8(%rbp),%rdx
  402516:	48 8b 45 d0          	mov    -0x30(%rbp),%rax
  40251a:	48 89 42 20          	mov    %rax,0x20(%rdx)
  40251e:	5d                   	pop    %rbp
  40251f:	c3                   	retq   

0000000000402520 <_ZNK5hayai10TestResult9TimeTotalEv>:
  402520:	55                   	push   %rbp
  402521:	48 89 e5             	mov    %rsp,%rbp
  402524:	48 89 7d f8          	mov    %rdi,-0x8(%rbp)
  402528:	48 8b 45 f8          	mov    -0x8(%rbp),%rax
  40252c:	48 8b 40 10          	mov    0x10(%rax),%rax
  402530:	48 89 45 f0          	mov    %rax,-0x10(%rbp)
  402534:	f2 0f 10 45 f0       	movsd  -0x10(%rbp),%xmm0
  402539:	5d                   	pop    %rbp
  40253a:	c3                   	retq   
  40253b:	90                   	nop

000000000040253c <_ZNK5hayai10TestResult14RunTimeAverageEv>:
  40253c:	55                   	push   %rbp
  40253d:	48 89 e5             	mov    %rsp,%rbp
  402540:	48 89 7d f8          	mov    %rdi,-0x8(%rbp)
  402544:	48 8b 45 f8          	mov    -0x8(%rbp),%rax
  402548:	f2 0f 10 48 10       	movsd  0x10(%rax),%xmm1
  40254d:	48 8b 45 f8          	mov    -0x8(%rbp),%rax
  402551:	48 8b 00             	mov    (%rax),%rax
  402554:	48 85 c0             	test   %rax,%rax
  402557:	78 0b                	js     402564 <_ZNK5hayai10TestResult14RunTimeAverageEv+0x28>
  402559:	66 0f ef c0          	pxor   %xmm0,%xmm0
  40255d:	f2 48 0f 2a c0       	cvtsi2sd %rax,%xmm0
  402562:	eb 19                	jmp    40257d <_ZNK5hayai10TestResult14RunTimeAverageEv+0x41>
  402564:	48 89 c2             	mov    %rax,%rdx
  402567:	48 d1 ea             	shr    %rdx
  40256a:	83 e0 01             	and    $0x1,%eax
  40256d:	48 09 c2             	or     %rax,%rdx
  402570:	66 0f ef c0          	pxor   %xmm0,%xmm0
  402574:	f2 48 0f 2a c2       	cvtsi2sd %rdx,%xmm0
  402579:	f2 0f 58 c0          	addsd  %xmm0,%xmm0
  40257d:	f2 0f 5e c8          	divsd  %xmm0,%xmm1
  402581:	66 0f 28 c1          	movapd %xmm1,%xmm0
  402585:	5d                   	pop    %rbp
  402586:	c3                   	retq   
  402587:	90                   	nop

0000000000402588 <_ZNK5hayai10TestResult14RunTimeMaximumEv>:
  402588:	55                   	push   %rbp
  402589:	48 89 e5             	mov    %rsp,%rbp
  40258c:	48 89 7d f8          	mov    %rdi,-0x8(%rbp)
  402590:	48 8b 45 f8          	mov    -0x8(%rbp),%rax
  402594:	48 8b 40 20          	mov    0x20(%rax),%rax
  402598:	48 89 45 f0          	mov    %rax,-0x10(%rbp)
  40259c:	f2 0f 10 45 f0       	movsd  -0x10(%rbp),%xmm0
  4025a1:	5d                   	pop    %rbp
  4025a2:	c3                   	retq   
  4025a3:	90                   	nop

00000000004025a4 <_ZNK5hayai10TestResult14RunTimeMinimumEv>:
  4025a4:	55                   	push   %rbp
  4025a5:	48 89 e5             	mov    %rsp,%rbp
  4025a8:	48 89 7d f8          	mov    %rdi,-0x8(%rbp)
  4025ac:	48 8b 45 f8          	mov    -0x8(%rbp),%rax
  4025b0:	48 8b 40 18          	mov    0x18(%rax),%rax
  4025b4:	48 89 45 f0          	mov    %rax,-0x10(%rbp)
  4025b8:	f2 0f 10 45 f0       	movsd  -0x10(%rbp),%xmm0
  4025bd:	5d                   	pop    %rbp
  4025be:	c3                   	retq   
  4025bf:	90                   	nop

00000000004025c0 <_ZNK5hayai10TestResult20RunsPerSecondAverageEv>:
  4025c0:	55                   	push   %rbp
  4025c1:	48 89 e5             	mov    %rsp,%rbp
  4025c4:	48 83 ec 10          	sub    $0x10,%rsp
  4025c8:	48 89 7d f8          	mov    %rdi,-0x8(%rbp)
  4025cc:	48 8b 45 f8          	mov    -0x8(%rbp),%rax
  4025d0:	48 89 c7             	mov    %rax,%rdi
  4025d3:	e8 64 ff ff ff       	callq  40253c <_ZNK5hayai10TestResult14RunTimeAverageEv>
  4025d8:	66 0f 28 c8          	movapd %xmm0,%xmm1
  4025dc:	f2 0f 10 05 9c 53 00 	movsd  0x539c(%rip),%xmm0        # 407980 <_ZZL18__gthread_active_pvE20__gthread_active_ptr+0x8>
  4025e3:	00 
  4025e4:	f2 0f 5e c1          	divsd  %xmm1,%xmm0
  4025e8:	c9                   	leaveq 
  4025e9:	c3                   	retq   

00000000004025ea <_ZNK5hayai10TestResult20RunsPerSecondMaximumEv>:
  4025ea:	55                   	push   %rbp
  4025eb:	48 89 e5             	mov    %rsp,%rbp
  4025ee:	48 89 7d f8          	mov    %rdi,-0x8(%rbp)
  4025f2:	48 8b 45 f8          	mov    -0x8(%rbp),%rax
  4025f6:	f2 0f 10 48 18       	movsd  0x18(%rax),%xmm1
  4025fb:	f2 0f 10 05 7d 53 00 	movsd  0x537d(%rip),%xmm0        # 407980 <_ZZL18__gthread_active_pvE20__gthread_active_ptr+0x8>
  402602:	00 
  402603:	f2 0f 5e c1          	divsd  %xmm1,%xmm0
  402607:	5d                   	pop    %rbp
  402608:	c3                   	retq   
  402609:	90                   	nop

000000000040260a <_ZNK5hayai10TestResult20RunsPerSecondMinimumEv>:
  40260a:	55                   	push   %rbp
  40260b:	48 89 e5             	mov    %rsp,%rbp
  40260e:	48 89 7d f8          	mov    %rdi,-0x8(%rbp)
  402612:	48 8b 45 f8          	mov    -0x8(%rbp),%rax
  402616:	f2 0f 10 48 20       	movsd  0x20(%rax),%xmm1
  40261b:	f2 0f 10 05 5d 53 00 	movsd  0x535d(%rip),%xmm0        # 407980 <_ZZL18__gthread_active_pvE20__gthread_active_ptr+0x8>
  402622:	00 
  402623:	f2 0f 5e c1          	divsd  %xmm1,%xmm0
  402627:	5d                   	pop    %rbp
  402628:	c3                   	retq   
  402629:	90                   	nop

000000000040262a <_ZNK5hayai10TestResult20IterationTimeAverageEv>:
  40262a:	55                   	push   %rbp
  40262b:	48 89 e5             	mov    %rsp,%rbp
  40262e:	48 83 ec 10          	sub    $0x10,%rsp
  402632:	48 89 7d f8          	mov    %rdi,-0x8(%rbp)
  402636:	48 8b 45 f8          	mov    -0x8(%rbp),%rax
  40263a:	48 89 c7             	mov    %rax,%rdi
  40263d:	e8 fa fe ff ff       	callq  40253c <_ZNK5hayai10TestResult14RunTimeAverageEv>
  402642:	66 0f 28 c8          	movapd %xmm0,%xmm1
  402646:	48 8b 45 f8          	mov    -0x8(%rbp),%rax
  40264a:	48 8b 40 08          	mov    0x8(%rax),%rax
  40264e:	48 85 c0             	test   %rax,%rax
  402651:	78 0b                	js     40265e <_ZNK5hayai10TestResult20IterationTimeAverageEv+0x34>
  402653:	66 0f ef c0          	pxor   %xmm0,%xmm0
  402657:	f2 48 0f 2a c0       	cvtsi2sd %rax,%xmm0
  40265c:	eb 19                	jmp    402677 <_ZNK5hayai10TestResult20IterationTimeAverageEv+0x4d>
  40265e:	48 89 c2             	mov    %rax,%rdx
  402661:	48 d1 ea             	shr    %rdx
  402664:	83 e0 01             	and    $0x1,%eax
  402667:	48 09 c2             	or     %rax,%rdx
  40266a:	66 0f ef c0          	pxor   %xmm0,%xmm0
  40266e:	f2 48 0f 2a c2       	cvtsi2sd %rdx,%xmm0
  402673:	f2 0f 58 c0          	addsd  %xmm0,%xmm0
  402677:	f2 0f 5e c8          	divsd  %xmm0,%xmm1
  40267b:	66 0f 28 c1          	movapd %xmm1,%xmm0
  40267f:	c9                   	leaveq 
  402680:	c3                   	retq   
  402681:	90                   	nop

0000000000402682 <_ZNK5hayai10TestResult20IterationTimeMinimumEv>:
  402682:	55                   	push   %rbp
  402683:	48 89 e5             	mov    %rsp,%rbp
  402686:	48 89 7d f8          	mov    %rdi,-0x8(%rbp)
  40268a:	48 8b 45 f8          	mov    -0x8(%rbp),%rax
  40268e:	f2 0f 10 48 18       	movsd  0x18(%rax),%xmm1
  402693:	48 8b 45 f8          	mov    -0x8(%rbp),%rax
  402697:	48 8b 40 08          	mov    0x8(%rax),%rax
  40269b:	48 85 c0             	test   %rax,%rax
  40269e:	78 0b                	js     4026ab <_ZNK5hayai10TestResult20IterationTimeMinimumEv+0x29>
  4026a0:	66 0f ef c0          	pxor   %xmm0,%xmm0
  4026a4:	f2 48 0f 2a c0       	cvtsi2sd %rax,%xmm0
  4026a9:	eb 19                	jmp    4026c4 <_ZNK5hayai10TestResult20IterationTimeMinimumEv+0x42>
  4026ab:	48 89 c2             	mov    %rax,%rdx
  4026ae:	48 d1 ea             	shr    %rdx
  4026b1:	83 e0 01             	and    $0x1,%eax
  4026b4:	48 09 c2             	or     %rax,%rdx
  4026b7:	66 0f ef c0          	pxor   %xmm0,%xmm0
  4026bb:	f2 48 0f 2a c2       	cvtsi2sd %rdx,%xmm0
  4026c0:	f2 0f 58 c0          	addsd  %xmm0,%xmm0
  4026c4:	f2 0f 5e c8          	divsd  %xmm0,%xmm1
  4026c8:	66 0f 28 c1          	movapd %xmm1,%xmm0
  4026cc:	5d                   	pop    %rbp
  4026cd:	c3                   	retq   

00000000004026ce <_ZNK5hayai10TestResult20IterationTimeMaximumEv>:
  4026ce:	55                   	push   %rbp
  4026cf:	48 89 e5             	mov    %rsp,%rbp
  4026d2:	48 89 7d f8          	mov    %rdi,-0x8(%rbp)
  4026d6:	48 8b 45 f8          	mov    -0x8(%rbp),%rax
  4026da:	f2 0f 10 48 20       	movsd  0x20(%rax),%xmm1
  4026df:	48 8b 45 f8          	mov    -0x8(%rbp),%rax
  4026e3:	48 8b 40 08          	mov    0x8(%rax),%rax
  4026e7:	48 85 c0             	test   %rax,%rax
  4026ea:	78 0b                	js     4026f7 <_ZNK5hayai10TestResult20IterationTimeMaximumEv+0x29>
  4026ec:	66 0f ef c0          	pxor   %xmm0,%xmm0
  4026f0:	f2 48 0f 2a c0       	cvtsi2sd %rax,%xmm0
  4026f5:	eb 19                	jmp    402710 <_ZNK5hayai10TestResult20IterationTimeMaximumEv+0x42>
  4026f7:	48 89 c2             	mov    %rax,%rdx
  4026fa:	48 d1 ea             	shr    %rdx
  4026fd:	83 e0 01             	and    $0x1,%eax
  402700:	48 09 c2             	or     %rax,%rdx
  402703:	66 0f ef c0          	pxor   %xmm0,%xmm0
  402707:	f2 48 0f 2a c2       	cvtsi2sd %rdx,%xmm0
  40270c:	f2 0f 58 c0          	addsd  %xmm0,%xmm0
  402710:	f2 0f 5e c8          	divsd  %xmm0,%xmm1
  402714:	66 0f 28 c1          	movapd %xmm1,%xmm0
  402718:	5d                   	pop    %rbp
  402719:	c3                   	retq   

000000000040271a <_ZNK5hayai10TestResult26IterationsPerSecondAverageEv>:
  40271a:	55                   	push   %rbp
  40271b:	48 89 e5             	mov    %rsp,%rbp
  40271e:	48 83 ec 10          	sub    $0x10,%rsp
  402722:	48 89 7d f8          	mov    %rdi,-0x8(%rbp)
  402726:	48 8b 45 f8          	mov    -0x8(%rbp),%rax
  40272a:	48 89 c7             	mov    %rax,%rdi
  40272d:	e8 f8 fe ff ff       	callq  40262a <_ZNK5hayai10TestResult20IterationTimeAverageEv>
  402732:	66 0f 28 c8          	movapd %xmm0,%xmm1
  402736:	f2 0f 10 05 42 52 00 	movsd  0x5242(%rip),%xmm0        # 407980 <_ZZL18__gthread_active_pvE20__gthread_active_ptr+0x8>
  40273d:	00 
  40273e:	f2 0f 5e c1          	divsd  %xmm1,%xmm0
  402742:	c9                   	leaveq 
  402743:	c3                   	retq   

0000000000402744 <_ZNK5hayai10TestResult26IterationsPerSecondMinimumEv>:
  402744:	55                   	push   %rbp
  402745:	48 89 e5             	mov    %rsp,%rbp
  402748:	48 83 ec 10          	sub    $0x10,%rsp
  40274c:	48 89 7d f8          	mov    %rdi,-0x8(%rbp)
  402750:	48 8b 45 f8          	mov    -0x8(%rbp),%rax
  402754:	48 89 c7             	mov    %rax,%rdi
  402757:	e8 72 ff ff ff       	callq  4026ce <_ZNK5hayai10TestResult20IterationTimeMaximumEv>
  40275c:	66 0f 28 c8          	movapd %xmm0,%xmm1
  402760:	f2 0f 10 05 18 52 00 	movsd  0x5218(%rip),%xmm0        # 407980 <_ZZL18__gthread_active_pvE20__gthread_active_ptr+0x8>
  402767:	00 
  402768:	f2 0f 5e c1          	divsd  %xmm1,%xmm0
  40276c:	c9                   	leaveq 
  40276d:	c3                   	retq   

000000000040276e <_ZNK5hayai10TestResult26IterationsPerSecondMaximumEv>:
  40276e:	55                   	push   %rbp
  40276f:	48 89 e5             	mov    %rsp,%rbp
  402772:	48 83 ec 10          	sub    $0x10,%rsp
  402776:	48 89 7d f8          	mov    %rdi,-0x8(%rbp)
  40277a:	48 8b 45 f8          	mov    -0x8(%rbp),%rax
  40277e:	48 89 c7             	mov    %rax,%rdi
  402781:	e8 fc fe ff ff       	callq  402682 <_ZNK5hayai10TestResult20IterationTimeMinimumEv>
  402786:	66 0f 28 c8          	movapd %xmm0,%xmm1
  40278a:	f2 0f 10 05 ee 51 00 	movsd  0x51ee(%rip),%xmm0        # 407980 <_ZZL18__gthread_active_pvE20__gthread_active_ptr+0x8>
  402791:	00 
  402792:	f2 0f 5e c1          	divsd  %xmm1,%xmm0
  402796:	c9                   	leaveq 
  402797:	c3                   	retq   

0000000000402798 <_ZN5hayai4Test3RunEm>:
  402798:	55                   	push   %rbp
  402799:	48 89 e5             	mov    %rsp,%rbp
  40279c:	48 83 ec 40          	sub    $0x40,%rsp
  4027a0:	48 89 7d c8          	mov    %rdi,-0x38(%rbp)
  4027a4:	48 89 75 c0          	mov    %rsi,-0x40(%rbp)
  4027a8:	48 8b 45 c8          	mov    -0x38(%rbp),%rax
  4027ac:	48 8b 00             	mov    (%rax),%rax
  4027af:	48 8b 00             	mov    (%rax),%rax
  4027b2:	48 8b 55 c8          	mov    -0x38(%rbp),%rdx
  4027b6:	48 89 d7             	mov    %rdx,%rdi
  4027b9:	ff d0                	callq  *%rax
  4027bb:	e8 98 fc ff ff       	callq  402458 <_ZN5hayai5Clock3NowEv>
  4027c0:	48 89 45 e0          	mov    %rax,-0x20(%rbp)
  4027c4:	48 89 55 e8          	mov    %rdx,-0x18(%rbp)
  4027c8:	48 8b 45 c0          	mov    -0x40(%rbp),%rax
  4027cc:	48 89 45 f8          	mov    %rax,-0x8(%rbp)
  4027d0:	eb 17                	jmp    4027e9 <_ZN5hayai4Test3RunEm+0x51>
  4027d2:	48 8b 45 c8          	mov    -0x38(%rbp),%rax
  4027d6:	48 8b 00             	mov    (%rax),%rax
  4027d9:	48 83 c0 20          	add    $0x20,%rax
  4027dd:	48 8b 00             	mov    (%rax),%rax
  4027e0:	48 8b 55 c8          	mov    -0x38(%rbp),%rdx
  4027e4:	48 89 d7             	mov    %rdx,%rdi
  4027e7:	ff d0                	callq  *%rax
  4027e9:	48 8b 45 f8          	mov    -0x8(%rbp),%rax
  4027ed:	48 8d 50 ff          	lea    -0x1(%rax),%rdx
  4027f1:	48 89 55 f8          	mov    %rdx,-0x8(%rbp)
  4027f5:	48 85 c0             	test   %rax,%rax
  4027f8:	0f 95 c0             	setne  %al
  4027fb:	84 c0                	test   %al,%al
  4027fd:	75 d3                	jne    4027d2 <_ZN5hayai4Test3RunEm+0x3a>
  4027ff:	e8 54 fc ff ff       	callq  402458 <_ZN5hayai5Clock3NowEv>
  402804:	48 89 45 d0          	mov    %rax,-0x30(%rbp)
  402808:	48 89 55 d8          	mov    %rdx,-0x28(%rbp)
  40280c:	48 8b 45 c8          	mov    -0x38(%rbp),%rax
  402810:	48 8b 00             	mov    (%rax),%rax
  402813:	48 83 c0 08          	add    $0x8,%rax
  402817:	48 8b 00             	mov    (%rax),%rax
  40281a:	48 8b 55 c8          	mov    -0x38(%rbp),%rdx
  40281e:	48 89 d7             	mov    %rdx,%rdi
  402821:	ff d0                	callq  *%rax
  402823:	48 8d 55 d0          	lea    -0x30(%rbp),%rdx
  402827:	48 8d 45 e0          	lea    -0x20(%rbp),%rax
  40282b:	48 89 d6             	mov    %rdx,%rsi
  40282e:	48 89 c7             	mov    %rax,%rdi
  402831:	e8 45 fc ff ff       	callq  40247b <_ZN5hayai5Clock8DurationERK7timevalS3_>
  402836:	c9                   	leaveq 
  402837:	c3                   	retq   

0000000000402838 <_ZN5hayai14TestDescriptorD1Ev>:
  402838:	55                   	push   %rbp
  402839:	48 89 e5             	mov    %rsp,%rbp
  40283c:	53                   	push   %rbx
  40283d:	48 83 ec 18          	sub    $0x18,%rsp
  402841:	48 89 7d e8          	mov    %rdi,-0x18(%rbp)
  402845:	48 8b 45 e8          	mov    -0x18(%rbp),%rax
  402849:	48 8b 40 20          	mov    0x20(%rax),%rax
  40284d:	48 85 c0             	test   %rax,%rax
  402850:	74 1f                	je     402871 <_ZN5hayai14TestDescriptorD1Ev+0x39>
  402852:	48 8b 45 e8          	mov    -0x18(%rbp),%rax
  402856:	48 8b 40 20          	mov    0x20(%rax),%rax
  40285a:	48 8b 00             	mov    (%rax),%rax
  40285d:	48 83 c0 08          	add    $0x8,%rax
  402861:	48 8b 00             	mov    (%rax),%rax
  402864:	48 8b 55 e8          	mov    -0x18(%rbp),%rdx
  402868:	48 8b 52 20          	mov    0x20(%rdx),%rdx
  40286c:	48 89 d7             	mov    %rdx,%rdi
  40286f:	ff d0                	callq  *%rax
  402871:	48 8b 45 e8          	mov    -0x18(%rbp),%rax
  402875:	48 83 c0 28          	add    $0x28,%rax
  402879:	48 89 c7             	mov    %rax,%rdi
  40287c:	e8 df ea ff ff       	callq  401360 <_ZNSsD1Ev@plt>
  402881:	48 8b 45 e8          	mov    -0x18(%rbp),%rax
  402885:	48 83 c0 08          	add    $0x8,%rax
  402889:	48 89 c7             	mov    %rax,%rdi
  40288c:	e8 cf ea ff ff       	callq  401360 <_ZNSsD1Ev@plt>
  402891:	48 8b 45 e8          	mov    -0x18(%rbp),%rax
  402895:	48 89 c7             	mov    %rax,%rdi
  402898:	e8 c3 ea ff ff       	callq  401360 <_ZNSsD1Ev@plt>
  40289d:	eb 44                	jmp    4028e3 <_ZN5hayai14TestDescriptorD1Ev+0xab>
  40289f:	48 89 c3             	mov    %rax,%rbx
  4028a2:	48 8b 45 e8          	mov    -0x18(%rbp),%rax
  4028a6:	48 83 c0 28          	add    $0x28,%rax
  4028aa:	48 89 c7             	mov    %rax,%rdi
  4028ad:	e8 ae ea ff ff       	callq  401360 <_ZNSsD1Ev@plt>
  4028b2:	eb 03                	jmp    4028b7 <_ZN5hayai14TestDescriptorD1Ev+0x7f>
  4028b4:	48 89 c3             	mov    %rax,%rbx
  4028b7:	48 8b 45 e8          	mov    -0x18(%rbp),%rax
  4028bb:	48 83 c0 08          	add    $0x8,%rax
  4028bf:	48 89 c7             	mov    %rax,%rdi
  4028c2:	e8 99 ea ff ff       	callq  401360 <_ZNSsD1Ev@plt>
  4028c7:	eb 03                	jmp    4028cc <_ZN5hayai14TestDescriptorD1Ev+0x94>
  4028c9:	48 89 c3             	mov    %rax,%rbx
  4028cc:	48 8b 45 e8          	mov    -0x18(%rbp),%rax
  4028d0:	48 89 c7             	mov    %rax,%rdi
  4028d3:	e8 88 ea ff ff       	callq  401360 <_ZNSsD1Ev@plt>
  4028d8:	48 89 d8             	mov    %rbx,%rax
  4028db:	48 89 c7             	mov    %rax,%rdi
  4028de:	e8 9d eb ff ff       	callq  401480 <_Unwind_Resume@plt>
  4028e3:	48 83 c4 18          	add    $0x18,%rsp
  4028e7:	5b                   	pop    %rbx
  4028e8:	5d                   	pop    %rbp
  4028e9:	c3                   	retq   

00000000004028ea <_ZN5hayai9OutputterD1Ev>:
  4028ea:	55                   	push   %rbp
  4028eb:	48 89 e5             	mov    %rsp,%rbp
  4028ee:	48 83 ec 10          	sub    $0x10,%rsp
  4028f2:	48 89 7d f8          	mov    %rdi,-0x8(%rbp)
  4028f6:	48 8b 45 f8          	mov    -0x8(%rbp),%rax
  4028fa:	48 c7 00 90 7a 40 00 	movq   $0x407a90,(%rax)
  402901:	b8 00 00 00 00       	mov    $0x0,%eax
  402906:	85 c0                	test   %eax,%eax
  402908:	74 0c                	je     402916 <_ZN5hayai9OutputterD1Ev+0x2c>
  40290a:	48 8b 45 f8          	mov    -0x8(%rbp),%rax
  40290e:	48 89 c7             	mov    %rax,%rdi
  402911:	e8 9a e9 ff ff       	callq  4012b0 <_ZdlPv@plt>
  402916:	c9                   	leaveq 
  402917:	c3                   	retq   

0000000000402918 <_ZN5hayai9OutputterD0Ev>:
  402918:	55                   	push   %rbp
  402919:	48 89 e5             	mov    %rsp,%rbp
  40291c:	48 83 ec 10          	sub    $0x10,%rsp
  402920:	48 89 7d f8          	mov    %rdi,-0x8(%rbp)
  402924:	48 8b 45 f8          	mov    -0x8(%rbp),%rax
  402928:	48 89 c7             	mov    %rax,%rdi
  40292b:	e8 ba ff ff ff       	callq  4028ea <_ZN5hayai9OutputterD1Ev>
  402930:	48 8b 45 f8          	mov    -0x8(%rbp),%rax
  402934:	48 89 c7             	mov    %rax,%rdi
  402937:	e8 74 e9 ff ff       	callq  4012b0 <_ZdlPv@plt>
  40293c:	c9                   	leaveq 
  40293d:	c3                   	retq   

000000000040293e <_ZN5hayailsERSoRKNS_7Console9TextColorE>:
  40293e:	55                   	push   %rbp
  40293f:	48 89 e5             	mov    %rsp,%rbp
  402942:	48 83 ec 20          	sub    $0x20,%rsp
  402946:	48 89 7d e8          	mov    %rdi,-0x18(%rbp)
  40294a:	48 89 75 e0          	mov    %rsi,-0x20(%rbp)
  40294e:	b8 10 b4 60 00       	mov    $0x60b410,%eax
  402953:	0f b6 00             	movzbl (%rax),%eax
  402956:	84 c0                	test   %al,%al
  402958:	75 3f                	jne    402999 <_ZN5hayailsERSoRKNS_7Console9TextColorE+0x5b>
  40295a:	bf 10 b4 60 00       	mov    $0x60b410,%edi
  40295f:	e8 1c e9 ff ff       	callq  401280 <__cxa_guard_acquire@plt>
  402964:	85 c0                	test   %eax,%eax
  402966:	0f 95 c0             	setne  %al
  402969:	84 c0                	test   %al,%al
  40296b:	74 2c                	je     402999 <_ZN5hayailsERSoRKNS_7Console9TextColorE+0x5b>
  40296d:	48 8b 05 0c 8a 20 00 	mov    0x208a0c(%rip),%rax        # 60b380 <stdout@@GLIBC_2.2.5>
  402974:	48 89 c7             	mov    %rax,%rdi
  402977:	e8 e4 e8 ff ff       	callq  401260 <fileno@plt>
  40297c:	89 c7                	mov    %eax,%edi
  40297e:	e8 0d e9 ff ff       	callq  401290 <isatty@plt>
  402983:	83 f8 01             	cmp    $0x1,%eax
  402986:	0f 95 c0             	setne  %al
  402989:	88 05 89 8a 20 00    	mov    %al,0x208a89(%rip)        # 60b418 <_ZZN5hayailsERSoRKNS_7Console9TextColorEE13outputNoColor>
  40298f:	bf 10 b4 60 00       	mov    $0x60b410,%edi
  402994:	e8 f7 e9 ff ff       	callq  401390 <__cxa_guard_release@plt>
  402999:	0f b6 05 78 8a 20 00 	movzbl 0x208a78(%rip),%eax        # 60b418 <_ZZN5hayailsERSoRKNS_7Console9TextColorEE13outputNoColor>
  4029a0:	84 c0                	test   %al,%al
  4029a2:	74 09                	je     4029ad <_ZN5hayailsERSoRKNS_7Console9TextColorE+0x6f>
  4029a4:	48 8b 45 e8          	mov    -0x18(%rbp),%rax
  4029a8:	e9 8b 00 00 00       	jmpq   402a38 <_ZN5hayailsERSoRKNS_7Console9TextColorE+0xfa>
  4029ad:	48 c7 45 f8 a0 77 40 	movq   $0x4077a0,-0x8(%rbp)
  4029b4:	00 
  4029b5:	48 8b 45 e0          	mov    -0x20(%rbp),%rax
  4029b9:	8b 00                	mov    (%rax),%eax
  4029bb:	83 f8 08             	cmp    $0x8,%eax
  4029be:	77 65                	ja     402a25 <_ZN5hayailsERSoRKNS_7Console9TextColorE+0xe7>
  4029c0:	89 c0                	mov    %eax,%eax
  4029c2:	48 8b 04 c5 a0 79 40 	mov    0x4079a0(,%rax,8),%rax
  4029c9:	00 
  4029ca:	ff e0                	jmpq   *%rax
  4029cc:	48 c7 45 f8 a1 77 40 	movq   $0x4077a1,-0x8(%rbp)
  4029d3:	00 
  4029d4:	eb 4f                	jmp    402a25 <_ZN5hayailsERSoRKNS_7Console9TextColorE+0xe7>
  4029d6:	48 c7 45 f8 a5 77 40 	movq   $0x4077a5,-0x8(%rbp)
  4029dd:	00 
  4029de:	eb 45                	jmp    402a25 <_ZN5hayailsERSoRKNS_7Console9TextColorE+0xe7>
  4029e0:	48 c7 45 f8 ad 77 40 	movq   $0x4077ad,-0x8(%rbp)
  4029e7:	00 
  4029e8:	eb 3b                	jmp    402a25 <_ZN5hayailsERSoRKNS_7Console9TextColorE+0xe7>
  4029ea:	48 c7 45 f8 b5 77 40 	movq   $0x4077b5,-0x8(%rbp)
  4029f1:	00 
  4029f2:	eb 31                	jmp    402a25 <_ZN5hayailsERSoRKNS_7Console9TextColorE+0xe7>
  4029f4:	48 c7 45 f8 bd 77 40 	movq   $0x4077bd,-0x8(%rbp)
  4029fb:	00 
  4029fc:	eb 27                	jmp    402a25 <_ZN5hayailsERSoRKNS_7Console9TextColorE+0xe7>
  4029fe:	48 c7 45 f8 c5 77 40 	movq   $0x4077c5,-0x8(%rbp)
  402a05:	00 
  402a06:	eb 1d                	jmp    402a25 <_ZN5hayailsERSoRKNS_7Console9TextColorE+0xe7>
  402a08:	48 c7 45 f8 cd 77 40 	movq   $0x4077cd,-0x8(%rbp)
  402a0f:	00 
  402a10:	eb 13                	jmp    402a25 <_ZN5hayailsERSoRKNS_7Console9TextColorE+0xe7>
  402a12:	48 c7 45 f8 d5 77 40 	movq   $0x4077d5,-0x8(%rbp)
  402a19:	00 
  402a1a:	eb 09                	jmp    402a25 <_ZN5hayailsERSoRKNS_7Console9TextColorE+0xe7>
  402a1c:	48 c7 45 f8 dd 77 40 	movq   $0x4077dd,-0x8(%rbp)
  402a23:	00 
  402a24:	90                   	nop
  402a25:	48 8b 55 f8          	mov    -0x8(%rbp),%rdx
  402a29:	48 8b 45 e8          	mov    -0x18(%rbp),%rax
  402a2d:	48 89 d6             	mov    %rdx,%rsi
  402a30:	48 89 c7             	mov    %rax,%rdi
  402a33:	e8 18 e9 ff ff       	callq  401350 <_ZStlsISt11char_traitsIcEERSt13basic_ostreamIcT_ES5_PKc@plt>
  402a38:	c9                   	leaveq 
  402a39:	c3                   	retq   

0000000000402a3a <_ZN5hayai16ConsoleOutputter5BeginERKmS2_>:
  402a3a:	55                   	push   %rbp
  402a3b:	48 89 e5             	mov    %rsp,%rbp
  402a3e:	41 54                	push   %r12
  402a40:	53                   	push   %rbx
  402a41:	48 83 ec 30          	sub    $0x30,%rsp
  402a45:	48 89 7d d8          	mov    %rdi,-0x28(%rbp)
  402a49:	48 89 75 d0          	mov    %rsi,-0x30(%rbp)
  402a4d:	48 89 55 c8          	mov    %rdx,-0x38(%rbp)
  402a51:	be f8 23 40 00       	mov    $0x4023f8,%esi
  402a56:	bf e0 b1 60 00       	mov    $0x60b1e0,%edi
  402a5b:	e8 30 ea ff ff       	callq  401490 <_ZNSolsEPFRSt8ios_baseS0_E@plt>
  402a60:	48 8b 45 d0          	mov    -0x30(%rbp),%rax
  402a64:	48 8b 00             	mov    (%rax),%rax
  402a67:	48 83 f8 01          	cmp    $0x1,%rax
  402a6b:	75 08                	jne    402a75 <_ZN5hayai16ConsoleOutputter5BeginERKmS2_+0x3b>
  402a6d:	41 bc e5 77 40 00    	mov    $0x4077e5,%r12d
  402a73:	eb 06                	jmp    402a7b <_ZN5hayai16ConsoleOutputter5BeginERKmS2_+0x41>
  402a75:	41 bc f1 77 40 00    	mov    $0x4077f1,%r12d
  402a7b:	48 8b 45 d0          	mov    -0x30(%rbp),%rax
  402a7f:	48 8b 18             	mov    (%rax),%rbx
  402a82:	c7 45 e8 00 00 00 00 	movl   $0x0,-0x18(%rbp)
  402a89:	c7 45 ec 03 00 00 00 	movl   $0x3,-0x14(%rbp)
  402a90:	48 8d 45 ec          	lea    -0x14(%rbp),%rax
  402a94:	48 89 c6             	mov    %rax,%rsi
  402a97:	bf e0 b1 60 00       	mov    $0x60b1e0,%edi
  402a9c:	e8 9d fe ff ff       	callq  40293e <_ZN5hayailsERSoRKNS_7Console9TextColorE>
  402aa1:	be fd 77 40 00       	mov    $0x4077fd,%esi
  402aa6:	48 89 c7             	mov    %rax,%rdi
  402aa9:	e8 a2 e8 ff ff       	callq  401350 <_ZStlsISt11char_traitsIcEERSt13basic_ostreamIcT_ES5_PKc@plt>
  402aae:	48 89 c2             	mov    %rax,%rdx
  402ab1:	48 8d 45 e8          	lea    -0x18(%rbp),%rax
  402ab5:	48 89 c6             	mov    %rax,%rsi
  402ab8:	48 89 d7             	mov    %rdx,%rdi
  402abb:	e8 7e fe ff ff       	callq  40293e <_ZN5hayailsERSoRKNS_7Console9TextColorE>
  402ac0:	be 0a 78 40 00       	mov    $0x40780a,%esi
  402ac5:	48 89 c7             	mov    %rax,%rdi
  402ac8:	e8 83 e8 ff ff       	callq  401350 <_ZStlsISt11char_traitsIcEERSt13basic_ostreamIcT_ES5_PKc@plt>
  402acd:	48 89 de             	mov    %rbx,%rsi
  402ad0:	48 89 c7             	mov    %rax,%rdi
  402ad3:	e8 c8 e8 ff ff       	callq  4013a0 <_ZNSolsEm@plt>
  402ad8:	4c 89 e6             	mov    %r12,%rsi
  402adb:	48 89 c7             	mov    %rax,%rdi
  402ade:	e8 6d e8 ff ff       	callq  401350 <_ZStlsISt11char_traitsIcEERSt13basic_ostreamIcT_ES5_PKc@plt>
  402ae3:	48 8b 45 c8          	mov    -0x38(%rbp),%rax
  402ae7:	48 8b 00             	mov    (%rax),%rax
  402aea:	48 85 c0             	test   %rax,%rax
  402aed:	74 49                	je     402b38 <_ZN5hayai16ConsoleOutputter5BeginERKmS2_+0xfe>
  402aef:	48 8b 45 c8          	mov    -0x38(%rbp),%rax
  402af3:	48 8b 00             	mov    (%rax),%rax
  402af6:	48 83 f8 01          	cmp    $0x1,%rax
  402afa:	75 08                	jne    402b04 <_ZN5hayai16ConsoleOutputter5BeginERKmS2_+0xca>
  402afc:	41 bc e5 77 40 00    	mov    $0x4077e5,%r12d
  402b02:	eb 06                	jmp    402b0a <_ZN5hayai16ConsoleOutputter5BeginERKmS2_+0xd0>
  402b04:	41 bc f1 77 40 00    	mov    $0x4077f1,%r12d
  402b0a:	48 8b 45 c8          	mov    -0x38(%rbp),%rax
  402b0e:	48 8b 18             	mov    (%rax),%rbx
  402b11:	be 14 78 40 00       	mov    $0x407814,%esi
  402b16:	bf e0 b1 60 00       	mov    $0x60b1e0,%edi
  402b1b:	e8 30 e8 ff ff       	callq  401350 <_ZStlsISt11char_traitsIcEERSt13basic_ostreamIcT_ES5_PKc@plt>
  402b20:	48 89 de             	mov    %rbx,%rsi
  402b23:	48 89 c7             	mov    %rax,%rdi
  402b26:	e8 75 e8 ff ff       	callq  4013a0 <_ZNSolsEm@plt>
  402b2b:	4c 89 e6             	mov    %r12,%rsi
  402b2e:	48 89 c7             	mov    %rax,%rdi
  402b31:	e8 1a e8 ff ff       	callq  401350 <_ZStlsISt11char_traitsIcEERSt13basic_ostreamIcT_ES5_PKc@plt>
  402b36:	eb 0f                	jmp    402b47 <_ZN5hayai16ConsoleOutputter5BeginERKmS2_+0x10d>
  402b38:	be 20 78 40 00       	mov    $0x407820,%esi
  402b3d:	bf e0 b1 60 00       	mov    $0x60b1e0,%edi
  402b42:	e8 09 e8 ff ff       	callq  401350 <_ZStlsISt11char_traitsIcEERSt13basic_ostreamIcT_ES5_PKc@plt>
  402b47:	be 40 14 40 00       	mov    $0x401440,%esi
  402b4c:	bf e0 b1 60 00       	mov    $0x60b1e0,%edi
  402b51:	e8 ba e8 ff ff       	callq  401410 <_ZNSolsEPFRSoS_E@plt>
  402b56:	48 83 c4 30          	add    $0x30,%rsp
  402b5a:	5b                   	pop    %rbx
  402b5b:	41 5c                	pop    %r12
  402b5d:	5d                   	pop    %rbp
  402b5e:	c3                   	retq   
  402b5f:	90                   	nop

0000000000402b60 <_ZN5hayai16ConsoleOutputter3EndERKmS2_>:
  402b60:	55                   	push   %rbp
  402b61:	48 89 e5             	mov    %rsp,%rbp
  402b64:	41 54                	push   %r12
  402b66:	53                   	push   %rbx
  402b67:	48 83 ec 30          	sub    $0x30,%rsp
  402b6b:	48 89 7d d8          	mov    %rdi,-0x28(%rbp)
  402b6f:	48 89 75 d0          	mov    %rsi,-0x30(%rbp)
  402b73:	48 89 55 c8          	mov    %rdx,-0x38(%rbp)
  402b77:	48 8b 45 d0          	mov    -0x30(%rbp),%rax
  402b7b:	48 8b 00             	mov    (%rax),%rax
  402b7e:	48 83 f8 01          	cmp    $0x1,%rax
  402b82:	75 08                	jne    402b8c <_ZN5hayai16ConsoleOutputter3EndERKmS2_+0x2c>
  402b84:	41 bc e5 77 40 00    	mov    $0x4077e5,%r12d
  402b8a:	eb 06                	jmp    402b92 <_ZN5hayai16ConsoleOutputter3EndERKmS2_+0x32>
  402b8c:	41 bc f1 77 40 00    	mov    $0x4077f1,%r12d
  402b92:	48 8b 45 d0          	mov    -0x30(%rbp),%rax
  402b96:	48 8b 18             	mov    (%rax),%rbx
  402b99:	c7 45 e8 00 00 00 00 	movl   $0x0,-0x18(%rbp)
  402ba0:	c7 45 ec 03 00 00 00 	movl   $0x3,-0x14(%rbp)
  402ba7:	48 8d 45 ec          	lea    -0x14(%rbp),%rax
  402bab:	48 89 c6             	mov    %rax,%rsi
  402bae:	bf e0 b1 60 00       	mov    $0x60b1e0,%edi
  402bb3:	e8 86 fd ff ff       	callq  40293e <_ZN5hayailsERSoRKNS_7Console9TextColorE>
  402bb8:	be fd 77 40 00       	mov    $0x4077fd,%esi
  402bbd:	48 89 c7             	mov    %rax,%rdi
  402bc0:	e8 8b e7 ff ff       	callq  401350 <_ZStlsISt11char_traitsIcEERSt13basic_ostreamIcT_ES5_PKc@plt>
  402bc5:	48 89 c2             	mov    %rax,%rdx
  402bc8:	48 8d 45 e8          	lea    -0x18(%rbp),%rax
  402bcc:	48 89 c6             	mov    %rax,%rsi
  402bcf:	48 89 d7             	mov    %rdx,%rdi
  402bd2:	e8 67 fd ff ff       	callq  40293e <_ZN5hayailsERSoRKNS_7Console9TextColorE>
  402bd7:	be 22 78 40 00       	mov    $0x407822,%esi
  402bdc:	48 89 c7             	mov    %rax,%rdi
  402bdf:	e8 6c e7 ff ff       	callq  401350 <_ZStlsISt11char_traitsIcEERSt13basic_ostreamIcT_ES5_PKc@plt>
  402be4:	48 89 de             	mov    %rbx,%rsi
  402be7:	48 89 c7             	mov    %rax,%rdi
  402bea:	e8 b1 e7 ff ff       	callq  4013a0 <_ZNSolsEm@plt>
  402bef:	4c 89 e6             	mov    %r12,%rsi
  402bf2:	48 89 c7             	mov    %rax,%rdi
  402bf5:	e8 56 e7 ff ff       	callq  401350 <_ZStlsISt11char_traitsIcEERSt13basic_ostreamIcT_ES5_PKc@plt>
  402bfa:	48 8b 45 c8          	mov    -0x38(%rbp),%rax
  402bfe:	48 8b 00             	mov    (%rax),%rax
  402c01:	48 85 c0             	test   %rax,%rax
  402c04:	74 49                	je     402c4f <_ZN5hayai16ConsoleOutputter3EndERKmS2_+0xef>
  402c06:	48 8b 45 c8          	mov    -0x38(%rbp),%rax
  402c0a:	48 8b 00             	mov    (%rax),%rax
  402c0d:	48 83 f8 01          	cmp    $0x1,%rax
  402c11:	75 08                	jne    402c1b <_ZN5hayai16ConsoleOutputter3EndERKmS2_+0xbb>
  402c13:	41 bc e5 77 40 00    	mov    $0x4077e5,%r12d
  402c19:	eb 06                	jmp    402c21 <_ZN5hayai16ConsoleOutputter3EndERKmS2_+0xc1>
  402c1b:	41 bc f1 77 40 00    	mov    $0x4077f1,%r12d
  402c21:	48 8b 45 c8          	mov    -0x38(%rbp),%rax
  402c25:	48 8b 18             	mov    (%rax),%rbx
  402c28:	be 28 78 40 00       	mov    $0x407828,%esi
  402c2d:	bf e0 b1 60 00       	mov    $0x60b1e0,%edi
  402c32:	e8 19 e7 ff ff       	callq  401350 <_ZStlsISt11char_traitsIcEERSt13basic_ostreamIcT_ES5_PKc@plt>
  402c37:	48 89 de             	mov    %rbx,%rsi
  402c3a:	48 89 c7             	mov    %rax,%rdi
  402c3d:	e8 5e e7 ff ff       	callq  4013a0 <_ZNSolsEm@plt>
  402c42:	4c 89 e6             	mov    %r12,%rsi
  402c45:	48 89 c7             	mov    %rax,%rdi
  402c48:	e8 03 e7 ff ff       	callq  401350 <_ZStlsISt11char_traitsIcEERSt13basic_ostreamIcT_ES5_PKc@plt>
  402c4d:	eb 0f                	jmp    402c5e <_ZN5hayai16ConsoleOutputter3EndERKmS2_+0xfe>
  402c4f:	be 20 78 40 00       	mov    $0x407820,%esi
  402c54:	bf e0 b1 60 00       	mov    $0x60b1e0,%edi
  402c59:	e8 f2 e6 ff ff       	callq  401350 <_ZStlsISt11char_traitsIcEERSt13basic_ostreamIcT_ES5_PKc@plt>
  402c5e:	be 40 14 40 00       	mov    $0x401440,%esi
  402c63:	bf e0 b1 60 00       	mov    $0x60b1e0,%edi
  402c68:	e8 a3 e7 ff ff       	callq  401410 <_ZNSolsEPFRSoS_E@plt>
  402c6d:	48 83 c4 30          	add    $0x30,%rsp
  402c71:	5b                   	pop    %rbx
  402c72:	41 5c                	pop    %r12
  402c74:	5d                   	pop    %rbp
  402c75:	c3                   	retq   

0000000000402c76 <_ZN5hayai16ConsoleOutputter15BeginOrSkipTestERKSsS2_S2_RKmS4_b>:
  402c76:	55                   	push   %rbp
  402c77:	48 89 e5             	mov    %rsp,%rbp
  402c7a:	41 56                	push   %r14
  402c7c:	41 55                	push   %r13
  402c7e:	41 54                	push   %r12
  402c80:	53                   	push   %rbx
  402c81:	48 83 ec 50          	sub    $0x50,%rsp
  402c85:	48 89 7d c8          	mov    %rdi,-0x38(%rbp)
  402c89:	48 89 75 c0          	mov    %rsi,-0x40(%rbp)
  402c8d:	48 89 55 b8          	mov    %rdx,-0x48(%rbp)
  402c91:	48 89 4d b0          	mov    %rcx,-0x50(%rbp)
  402c95:	4c 89 45 a8          	mov    %r8,-0x58(%rbp)
  402c99:	4c 89 4d a0          	mov    %r9,-0x60(%rbp)
  402c9d:	8b 45 10             	mov    0x10(%rbp),%eax
  402ca0:	88 45 9c             	mov    %al,-0x64(%rbp)
  402ca3:	80 7d 9c 00          	cmpb   $0x0,-0x64(%rbp)
  402ca7:	74 27                	je     402cd0 <_ZN5hayai16ConsoleOutputter15BeginOrSkipTestERKSsS2_S2_RKmS4_b+0x5a>
  402ca9:	c7 45 d0 04 00 00 00 	movl   $0x4,-0x30(%rbp)
  402cb0:	48 8d 45 d0          	lea    -0x30(%rbp),%rax
  402cb4:	48 89 c6             	mov    %rax,%rsi
  402cb7:	bf e0 b1 60 00       	mov    $0x60b1e0,%edi
  402cbc:	e8 7d fc ff ff       	callq  40293e <_ZN5hayailsERSoRKNS_7Console9TextColorE>
  402cc1:	be 33 78 40 00       	mov    $0x407833,%esi
  402cc6:	48 89 c7             	mov    %rax,%rdi
  402cc9:	e8 82 e6 ff ff       	callq  401350 <_ZStlsISt11char_traitsIcEERSt13basic_ostreamIcT_ES5_PKc@plt>
  402cce:	eb 25                	jmp    402cf5 <_ZN5hayai16ConsoleOutputter15BeginOrSkipTestERKSsS2_S2_RKmS4_b+0x7f>
  402cd0:	c7 45 d4 03 00 00 00 	movl   $0x3,-0x2c(%rbp)
  402cd7:	48 8d 45 d4          	lea    -0x2c(%rbp),%rax
  402cdb:	48 89 c6             	mov    %rax,%rsi
  402cde:	bf e0 b1 60 00       	mov    $0x60b1e0,%edi
  402ce3:	e8 56 fc ff ff       	callq  40293e <_ZN5hayailsERSoRKNS_7Console9TextColorE>
  402ce8:	be 40 78 40 00       	mov    $0x407840,%esi
  402ced:	48 89 c7             	mov    %rax,%rdi
  402cf0:	e8 5b e6 ff ff       	callq  401350 <_ZStlsISt11char_traitsIcEERSt13basic_ostreamIcT_ES5_PKc@plt>
  402cf5:	48 8b 45 a0          	mov    -0x60(%rbp),%rax
  402cf9:	48 8b 00             	mov    (%rax),%rax
  402cfc:	48 83 f8 01          	cmp    $0x1,%rax
  402d00:	75 08                	jne    402d0a <_ZN5hayai16ConsoleOutputter15BeginOrSkipTestERKSsS2_S2_RKmS4_b+0x94>
  402d02:	41 bd 4d 78 40 00    	mov    $0x40784d,%r13d
  402d08:	eb 06                	jmp    402d10 <_ZN5hayai16ConsoleOutputter15BeginOrSkipTestERKSsS2_S2_RKmS4_b+0x9a>
  402d0a:	41 bd 61 78 40 00    	mov    $0x407861,%r13d
  402d10:	48 8b 45 a0          	mov    -0x60(%rbp),%rax
  402d14:	48 8b 18             	mov    (%rax),%rbx
  402d17:	48 8b 45 a8          	mov    -0x58(%rbp),%rax
  402d1b:	48 8b 00             	mov    (%rax),%rax
  402d1e:	48 83 f8 01          	cmp    $0x1,%rax
  402d22:	75 08                	jne    402d2c <_ZN5hayai16ConsoleOutputter15BeginOrSkipTestERKSsS2_S2_RKmS4_b+0xb6>
  402d24:	41 be 76 78 40 00    	mov    $0x407876,%r14d
  402d2a:	eb 06                	jmp    402d32 <_ZN5hayai16ConsoleOutputter15BeginOrSkipTestERKSsS2_S2_RKmS4_b+0xbc>
  402d2c:	41 be 7d 78 40 00    	mov    $0x40787d,%r14d
  402d32:	48 8b 45 a8          	mov    -0x58(%rbp),%rax
  402d36:	4c 8b 20             	mov    (%rax),%r12
  402d39:	c7 45 d8 00 00 00 00 	movl   $0x0,-0x28(%rbp)
  402d40:	c7 45 dc 07 00 00 00 	movl   $0x7,-0x24(%rbp)
  402d47:	48 8d 45 dc          	lea    -0x24(%rbp),%rax
  402d4b:	48 89 c6             	mov    %rax,%rsi
  402d4e:	bf e0 b1 60 00       	mov    $0x60b1e0,%edi
  402d53:	e8 e6 fb ff ff       	callq  40293e <_ZN5hayailsERSoRKNS_7Console9TextColorE>
  402d58:	be 85 78 40 00       	mov    $0x407885,%esi
  402d5d:	48 89 c7             	mov    %rax,%rdi
  402d60:	e8 eb e5 ff ff       	callq  401350 <_ZStlsISt11char_traitsIcEERSt13basic_ostreamIcT_ES5_PKc@plt>
  402d65:	48 89 c2             	mov    %rax,%rdx
  402d68:	48 8b 45 c0          	mov    -0x40(%rbp),%rax
  402d6c:	48 89 c6             	mov    %rax,%rsi
  402d6f:	48 89 d7             	mov    %rdx,%rdi
  402d72:	e8 69 e6 ff ff       	callq  4013e0 <_ZStlsIcSt11char_traitsIcESaIcEERSt13basic_ostreamIT_T0_ES7_RKSbIS4_S5_T1_E@plt>
  402d77:	be 20 78 40 00       	mov    $0x407820,%esi
  402d7c:	48 89 c7             	mov    %rax,%rdi
  402d7f:	e8 cc e5 ff ff       	callq  401350 <_ZStlsISt11char_traitsIcEERSt13basic_ostreamIcT_ES5_PKc@plt>
  402d84:	48 89 c2             	mov    %rax,%rdx
  402d87:	48 8b 45 b8          	mov    -0x48(%rbp),%rax
  402d8b:	48 89 c6             	mov    %rax,%rsi
  402d8e:	48 89 d7             	mov    %rdx,%rdi
  402d91:	e8 4a e6 ff ff       	callq  4013e0 <_ZStlsIcSt11char_traitsIcESaIcEERSt13basic_ostreamIT_T0_ES7_RKSbIS4_S5_T1_E@plt>
  402d96:	48 89 c2             	mov    %rax,%rdx
  402d99:	48 8b 45 b0          	mov    -0x50(%rbp),%rax
  402d9d:	48 89 c6             	mov    %rax,%rsi
  402da0:	48 89 d7             	mov    %rdx,%rdi
  402da3:	e8 38 e6 ff ff       	callq  4013e0 <_ZStlsIcSt11char_traitsIcESaIcEERSt13basic_ostreamIT_T0_ES7_RKSbIS4_S5_T1_E@plt>
  402da8:	48 89 c2             	mov    %rax,%rdx
  402dab:	48 8d 45 d8          	lea    -0x28(%rbp),%rax
  402daf:	48 89 c6             	mov    %rax,%rsi
  402db2:	48 89 d7             	mov    %rdx,%rdi
  402db5:	e8 84 fb ff ff       	callq  40293e <_ZN5hayailsERSoRKNS_7Console9TextColorE>
  402dba:	be 87 78 40 00       	mov    $0x407887,%esi
  402dbf:	48 89 c7             	mov    %rax,%rdi
  402dc2:	e8 89 e5 ff ff       	callq  401350 <_ZStlsISt11char_traitsIcEERSt13basic_ostreamIcT_ES5_PKc@plt>
  402dc7:	4c 89 e6             	mov    %r12,%rsi
  402dca:	48 89 c7             	mov    %rax,%rdi
  402dcd:	e8 ce e5 ff ff       	callq  4013a0 <_ZNSolsEm@plt>
  402dd2:	4c 89 f6             	mov    %r14,%rsi
  402dd5:	48 89 c7             	mov    %rax,%rdi
  402dd8:	e8 73 e5 ff ff       	callq  401350 <_ZStlsISt11char_traitsIcEERSt13basic_ostreamIcT_ES5_PKc@plt>
  402ddd:	48 89 de             	mov    %rbx,%rsi
  402de0:	48 89 c7             	mov    %rax,%rdi
  402de3:	e8 b8 e5 ff ff       	callq  4013a0 <_ZNSolsEm@plt>
  402de8:	4c 89 ee             	mov    %r13,%rsi
  402deb:	48 89 c7             	mov    %rax,%rdi
  402dee:	e8 5d e5 ff ff       	callq  401350 <_ZStlsISt11char_traitsIcEERSt13basic_ostreamIcT_ES5_PKc@plt>
  402df3:	be 40 14 40 00       	mov    $0x401440,%esi
  402df8:	48 89 c7             	mov    %rax,%rdi
  402dfb:	e8 10 e6 ff ff       	callq  401410 <_ZNSolsEPFRSoS_E@plt>
  402e00:	48 83 c4 50          	add    $0x50,%rsp
  402e04:	5b                   	pop    %rbx
  402e05:	41 5c                	pop    %r12
  402e07:	41 5d                	pop    %r13
  402e09:	41 5e                	pop    %r14
  402e0b:	5d                   	pop    %rbp
  402e0c:	c3                   	retq   
  402e0d:	90                   	nop

0000000000402e0e <_ZN5hayai16ConsoleOutputter9BeginTestERKSsS2_S2_RKmS4_>:
  402e0e:	55                   	push   %rbp
  402e0f:	48 89 e5             	mov    %rsp,%rbp
  402e12:	48 83 ec 30          	sub    $0x30,%rsp
  402e16:	48 89 7d f8          	mov    %rdi,-0x8(%rbp)
  402e1a:	48 89 75 f0          	mov    %rsi,-0x10(%rbp)
  402e1e:	48 89 55 e8          	mov    %rdx,-0x18(%rbp)
  402e22:	48 89 4d e0          	mov    %rcx,-0x20(%rbp)
  402e26:	4c 89 45 d8          	mov    %r8,-0x28(%rbp)
  402e2a:	4c 89 4d d0          	mov    %r9,-0x30(%rbp)
  402e2e:	48 83 ec 08          	sub    $0x8,%rsp
  402e32:	4c 8b 45 d0          	mov    -0x30(%rbp),%r8
  402e36:	48 8b 7d d8          	mov    -0x28(%rbp),%rdi
  402e3a:	48 8b 4d e0          	mov    -0x20(%rbp),%rcx
  402e3e:	48 8b 55 e8          	mov    -0x18(%rbp),%rdx
  402e42:	48 8b 75 f0          	mov    -0x10(%rbp),%rsi
  402e46:	48 8b 45 f8          	mov    -0x8(%rbp),%rax
  402e4a:	6a 00                	pushq  $0x0
  402e4c:	4d 89 c1             	mov    %r8,%r9
  402e4f:	49 89 f8             	mov    %rdi,%r8
  402e52:	48 89 c7             	mov    %rax,%rdi
  402e55:	e8 1c fe ff ff       	callq  402c76 <_ZN5hayai16ConsoleOutputter15BeginOrSkipTestERKSsS2_S2_RKmS4_b>
  402e5a:	48 83 c4 10          	add    $0x10,%rsp
  402e5e:	c9                   	leaveq 
  402e5f:	c3                   	retq   

0000000000402e60 <_ZN5hayai16ConsoleOutputter16SkipDisabledTestERKSsS2_S2_RKmS4_>:
  402e60:	55                   	push   %rbp
  402e61:	48 89 e5             	mov    %rsp,%rbp
  402e64:	48 83 ec 30          	sub    $0x30,%rsp
  402e68:	48 89 7d f8          	mov    %rdi,-0x8(%rbp)
  402e6c:	48 89 75 f0          	mov    %rsi,-0x10(%rbp)
  402e70:	48 89 55 e8          	mov    %rdx,-0x18(%rbp)
  402e74:	48 89 4d e0          	mov    %rcx,-0x20(%rbp)
  402e78:	4c 89 45 d8          	mov    %r8,-0x28(%rbp)
  402e7c:	4c 89 4d d0          	mov    %r9,-0x30(%rbp)
  402e80:	48 83 ec 08          	sub    $0x8,%rsp
  402e84:	4c 8b 45 d0          	mov    -0x30(%rbp),%r8
  402e88:	48 8b 7d d8          	mov    -0x28(%rbp),%rdi
  402e8c:	48 8b 4d e0          	mov    -0x20(%rbp),%rcx
  402e90:	48 8b 55 e8          	mov    -0x18(%rbp),%rdx
  402e94:	48 8b 75 f0          	mov    -0x10(%rbp),%rsi
  402e98:	48 8b 45 f8          	mov    -0x8(%rbp),%rax
  402e9c:	6a 01                	pushq  $0x1
  402e9e:	4d 89 c1             	mov    %r8,%r9
  402ea1:	49 89 f8             	mov    %rdi,%r8
  402ea4:	48 89 c7             	mov    %rax,%rdi
  402ea7:	e8 ca fd ff ff       	callq  402c76 <_ZN5hayai16ConsoleOutputter15BeginOrSkipTestERKSsS2_S2_RKmS4_b>
  402eac:	48 83 c4 10          	add    $0x10,%rsp
  402eb0:	c9                   	leaveq 
  402eb1:	c3                   	retq   

0000000000402eb2 <_ZN5hayai16ConsoleOutputter7EndTestERKSsS2_S2_RKNS_10TestResultE>:
  402eb2:	55                   	push   %rbp
  402eb3:	48 89 e5             	mov    %rsp,%rbp
  402eb6:	41 54                	push   %r12
  402eb8:	53                   	push   %rbx
  402eb9:	48 81 ec e0 00 00 00 	sub    $0xe0,%rsp
  402ec0:	48 89 bd 48 ff ff ff 	mov    %rdi,-0xb8(%rbp)
  402ec7:	48 89 b5 40 ff ff ff 	mov    %rsi,-0xc0(%rbp)
  402ece:	48 89 95 38 ff ff ff 	mov    %rdx,-0xc8(%rbp)
  402ed5:	48 89 8d 30 ff ff ff 	mov    %rcx,-0xd0(%rbp)
  402edc:	4c 89 85 28 ff ff ff 	mov    %r8,-0xd8(%rbp)
  402ee3:	48 8b 85 28 ff ff ff 	mov    -0xd8(%rbp),%rax
  402eea:	48 89 c7             	mov    %rax,%rdi
  402eed:	e8 2e f6 ff ff       	callq  402520 <_ZNK5hayai10TestResult9TimeTotalEv>
  402ef2:	66 0f 28 c8          	movapd %xmm0,%xmm1
  402ef6:	f2 0f 10 05 8a 4a 00 	movsd  0x4a8a(%rip),%xmm0        # 407988 <_ZZL18__gthread_active_pvE20__gthread_active_ptr+0x10>
  402efd:	00 
  402efe:	f2 0f 5e c8          	divsd  %xmm0,%xmm1
  402f02:	f2 0f 11 8d 20 ff ff 	movsd  %xmm1,-0xe0(%rbp)
  402f09:	ff 
  402f0a:	bf 06 00 00 00       	mov    $0x6,%edi
  402f0f:	e8 2c f5 ff ff       	callq  402440 <_ZSt12setprecisioni>
  402f14:	89 c3                	mov    %eax,%ebx
  402f16:	c7 85 54 ff ff ff 00 	movl   $0x0,-0xac(%rbp)
  402f1d:	00 00 00 
  402f20:	c7 85 58 ff ff ff 07 	movl   $0x7,-0xa8(%rbp)
  402f27:	00 00 00 
  402f2a:	c7 85 5c ff ff ff 03 	movl   $0x3,-0xa4(%rbp)
  402f31:	00 00 00 
  402f34:	48 8d 85 5c ff ff ff 	lea    -0xa4(%rbp),%rax
  402f3b:	48 89 c6             	mov    %rax,%rsi
  402f3e:	bf e0 b1 60 00       	mov    $0x60b1e0,%edi
  402f43:	e8 f6 f9 ff ff       	callq  40293e <_ZN5hayailsERSoRKNS_7Console9TextColorE>
  402f48:	be 8a 78 40 00       	mov    $0x40788a,%esi
  402f4d:	48 89 c7             	mov    %rax,%rdi
  402f50:	e8 fb e3 ff ff       	callq  401350 <_ZStlsISt11char_traitsIcEERSt13basic_ostreamIcT_ES5_PKc@plt>
  402f55:	48 89 c2             	mov    %rax,%rdx
  402f58:	48 8d 85 58 ff ff ff 	lea    -0xa8(%rbp),%rax
  402f5f:	48 89 c6             	mov    %rax,%rsi
  402f62:	48 89 d7             	mov    %rdx,%rdi
  402f65:	e8 d4 f9 ff ff       	callq  40293e <_ZN5hayailsERSoRKNS_7Console9TextColorE>
  402f6a:	be 85 78 40 00       	mov    $0x407885,%esi
  402f6f:	48 89 c7             	mov    %rax,%rdi
  402f72:	e8 d9 e3 ff ff       	callq  401350 <_ZStlsISt11char_traitsIcEERSt13basic_ostreamIcT_ES5_PKc@plt>
  402f77:	48 89 c2             	mov    %rax,%rdx
  402f7a:	48 8b 85 40 ff ff ff 	mov    -0xc0(%rbp),%rax
  402f81:	48 89 c6             	mov    %rax,%rsi
  402f84:	48 89 d7             	mov    %rdx,%rdi
  402f87:	e8 54 e4 ff ff       	callq  4013e0 <_ZStlsIcSt11char_traitsIcESaIcEERSt13basic_ostreamIT_T0_ES7_RKSbIS4_S5_T1_E@plt>
  402f8c:	be 20 78 40 00       	mov    $0x407820,%esi
  402f91:	48 89 c7             	mov    %rax,%rdi
  402f94:	e8 b7 e3 ff ff       	callq  401350 <_ZStlsISt11char_traitsIcEERSt13basic_ostreamIcT_ES5_PKc@plt>
  402f99:	48 89 c2             	mov    %rax,%rdx
  402f9c:	48 8b 85 38 ff ff ff 	mov    -0xc8(%rbp),%rax
  402fa3:	48 89 c6             	mov    %rax,%rsi
  402fa6:	48 89 d7             	mov    %rdx,%rdi
  402fa9:	e8 32 e4 ff ff       	callq  4013e0 <_ZStlsIcSt11char_traitsIcESaIcEERSt13basic_ostreamIT_T0_ES7_RKSbIS4_S5_T1_E@plt>
  402fae:	48 89 c2             	mov    %rax,%rdx
  402fb1:	48 8b 85 30 ff ff ff 	mov    -0xd0(%rbp),%rax
  402fb8:	48 89 c6             	mov    %rax,%rsi
  402fbb:	48 89 d7             	mov    %rdx,%rdi
  402fbe:	e8 1d e4 ff ff       	callq  4013e0 <_ZStlsIcSt11char_traitsIcESaIcEERSt13basic_ostreamIT_T0_ES7_RKSbIS4_S5_T1_E@plt>
  402fc3:	48 89 c2             	mov    %rax,%rdx
  402fc6:	48 8d 85 54 ff ff ff 	lea    -0xac(%rbp),%rax
  402fcd:	48 89 c6             	mov    %rax,%rsi
  402fd0:	48 89 d7             	mov    %rdx,%rdi
  402fd3:	e8 66 f9 ff ff       	callq  40293e <_ZN5hayailsERSoRKNS_7Console9TextColorE>
  402fd8:	be 87 78 40 00       	mov    $0x407887,%esi
  402fdd:	48 89 c7             	mov    %rax,%rdi
  402fe0:	e8 6b e3 ff ff       	callq  401350 <_ZStlsISt11char_traitsIcEERSt13basic_ostreamIcT_ES5_PKc@plt>
  402fe5:	89 de                	mov    %ebx,%esi
  402fe7:	48 89 c7             	mov    %rax,%rdi
  402fea:	e8 81 e2 ff ff       	callq  401270 <_ZStlsIcSt11char_traitsIcEERSt13basic_ostreamIT_T0_ES6_St13_Setprecision@plt>
  402fef:	f2 0f 10 85 20 ff ff 	movsd  -0xe0(%rbp),%xmm0
  402ff6:	ff 
  402ff7:	48 89 c7             	mov    %rax,%rdi
  402ffa:	e8 51 e2 ff ff       	callq  401250 <_ZNSolsEd@plt>
  402fff:	be 97 78 40 00       	mov    $0x407897,%esi
  403004:	48 89 c7             	mov    %rax,%rdi
  403007:	e8 44 e3 ff ff       	callq  401350 <_ZStlsISt11char_traitsIcEERSt13basic_ostreamIcT_ES5_PKc@plt>
  40300c:	be 40 14 40 00       	mov    $0x401440,%esi
  403011:	48 89 c7             	mov    %rax,%rdi
  403014:	e8 f7 e3 ff ff       	callq  401410 <_ZNSolsEPFRSoS_E@plt>
  403019:	48 8b 85 28 ff ff ff 	mov    -0xd8(%rbp),%rax
  403020:	48 89 c7             	mov    %rax,%rdi
  403023:	e8 14 f5 ff ff       	callq  40253c <_ZNK5hayai10TestResult14RunTimeAverageEv>
  403028:	66 0f 28 c8          	movapd %xmm0,%xmm1
  40302c:	f2 0f 10 05 5c 49 00 	movsd  0x495c(%rip),%xmm0        # 407990 <_ZZL18__gthread_active_pvE20__gthread_active_ptr+0x18>
  403033:	00 
  403034:	f2 0f 5e c8          	divsd  %xmm0,%xmm1
  403038:	f2 0f 11 8d 20 ff ff 	movsd  %xmm1,-0xe0(%rbp)
  40303f:	ff 
  403040:	bf 03 00 00 00       	mov    $0x3,%edi
  403045:	e8 f6 f3 ff ff       	callq  402440 <_ZSt12setprecisioni>
  40304a:	89 c3                	mov    %eax,%ebx
  40304c:	c7 85 60 ff ff ff 00 	movl   $0x0,-0xa0(%rbp)
  403053:	00 00 00 
  403056:	c7 85 64 ff ff ff 02 	movl   $0x2,-0x9c(%rbp)
  40305d:	00 00 00 
  403060:	48 8d 85 64 ff ff ff 	lea    -0x9c(%rbp),%rax
  403067:	48 89 c6             	mov    %rax,%rsi
  40306a:	bf e0 b1 60 00       	mov    $0x60b1e0,%edi
  40306f:	e8 ca f8 ff ff       	callq  40293e <_ZN5hayailsERSoRKNS_7Console9TextColorE>
  403074:	be 9c 78 40 00       	mov    $0x40789c,%esi
  403079:	48 89 c7             	mov    %rax,%rdi
  40307c:	e8 cf e2 ff ff       	callq  401350 <_ZStlsISt11char_traitsIcEERSt13basic_ostreamIcT_ES5_PKc@plt>
  403081:	48 89 c2             	mov    %rax,%rdx
  403084:	48 8d 85 60 ff ff ff 	lea    -0xa0(%rbp),%rax
  40308b:	48 89 c6             	mov    %rax,%rsi
  40308e:	48 89 d7             	mov    %rdx,%rdi
  403091:	e8 a8 f8 ff ff       	callq  40293e <_ZN5hayailsERSoRKNS_7Console9TextColorE>
  403096:	be aa 78 40 00       	mov    $0x4078aa,%esi
  40309b:	48 89 c7             	mov    %rax,%rdi
  40309e:	e8 ad e2 ff ff       	callq  401350 <_ZStlsISt11char_traitsIcEERSt13basic_ostreamIcT_ES5_PKc@plt>
  4030a3:	89 de                	mov    %ebx,%esi
  4030a5:	48 89 c7             	mov    %rax,%rdi
  4030a8:	e8 c3 e1 ff ff       	callq  401270 <_ZStlsIcSt11char_traitsIcEERSt13basic_ostreamIT_T0_ES6_St13_Setprecision@plt>
  4030ad:	f2 0f 10 85 20 ff ff 	movsd  -0xe0(%rbp),%xmm0
  4030b4:	ff 
  4030b5:	48 89 c7             	mov    %rax,%rdi
  4030b8:	e8 93 e1 ff ff       	callq  401250 <_ZNSolsEd@plt>
  4030bd:	be c0 78 40 00       	mov    $0x4078c0,%esi
  4030c2:	48 89 c7             	mov    %rax,%rdi
  4030c5:	e8 86 e2 ff ff       	callq  401350 <_ZStlsISt11char_traitsIcEERSt13basic_ostreamIcT_ES5_PKc@plt>
  4030ca:	be 40 14 40 00       	mov    $0x401440,%esi
  4030cf:	48 89 c7             	mov    %rax,%rdi
  4030d2:	e8 39 e3 ff ff       	callq  401410 <_ZNSolsEPFRSoS_E@plt>
  4030d7:	48 8b 85 28 ff ff ff 	mov    -0xd8(%rbp),%rax
  4030de:	48 89 c7             	mov    %rax,%rdi
  4030e1:	e8 be f4 ff ff       	callq  4025a4 <_ZNK5hayai10TestResult14RunTimeMinimumEv>
  4030e6:	66 0f 28 c8          	movapd %xmm0,%xmm1
  4030ea:	f2 0f 10 05 9e 48 00 	movsd  0x489e(%rip),%xmm0        # 407990 <_ZZL18__gthread_active_pvE20__gthread_active_ptr+0x18>
  4030f1:	00 
  4030f2:	f2 0f 5e c8          	divsd  %xmm0,%xmm1
  4030f6:	f2 0f 11 8d 20 ff ff 	movsd  %xmm1,-0xe0(%rbp)
  4030fd:	ff 
  4030fe:	48 8b 85 28 ff ff ff 	mov    -0xd8(%rbp),%rax
  403105:	48 89 c7             	mov    %rax,%rdi
  403108:	e8 2f f4 ff ff       	callq  40253c <_ZNK5hayai10TestResult14RunTimeAverageEv>
  40310d:	66 0f 28 c8          	movapd %xmm0,%xmm1
  403111:	f2 0f 10 05 77 48 00 	movsd  0x4877(%rip),%xmm0        # 407990 <_ZZL18__gthread_active_pvE20__gthread_active_ptr+0x18>
  403118:	00 
  403119:	66 0f 28 d1          	movapd %xmm1,%xmm2
  40311d:	f2 0f 5e d0          	divsd  %xmm0,%xmm2
  403121:	66 0f 28 c2          	movapd %xmm2,%xmm0
  403125:	f2 0f 10 8d 20 ff ff 	movsd  -0xe0(%rbp),%xmm1
  40312c:	ff 
  40312d:	f2 0f 5c c8          	subsd  %xmm0,%xmm1
  403131:	66 48 0f 7e c8       	movq   %xmm1,%rax
  403136:	48 89 45 e8          	mov    %rax,-0x18(%rbp)
  40313a:	c7 85 68 ff ff ff 00 	movl   $0x0,-0x98(%rbp)
  403141:	00 00 00 
  403144:	f2 0f 10 4d e8       	movsd  -0x18(%rbp),%xmm1
  403149:	f2 0f 10 05 47 48 00 	movsd  0x4847(%rip),%xmm0        # 407998 <_ZZL18__gthread_active_pvE20__gthread_active_ptr+0x20>
  403150:	00 
  403151:	f2 0f 59 c8          	mulsd  %xmm0,%xmm1
  403155:	f2 0f 11 8d 20 ff ff 	movsd  %xmm1,-0xe0(%rbp)
  40315c:	ff 
  40315d:	48 8b 85 28 ff ff ff 	mov    -0xd8(%rbp),%rax
  403164:	48 89 c7             	mov    %rax,%rdi
  403167:	e8 d0 f3 ff ff       	callq  40253c <_ZNK5hayai10TestResult14RunTimeAverageEv>
  40316c:	66 0f 28 c8          	movapd %xmm0,%xmm1
  403170:	f2 0f 10 05 18 48 00 	movsd  0x4818(%rip),%xmm0        # 407990 <_ZZL18__gthread_active_pvE20__gthread_active_ptr+0x18>
  403177:	00 
  403178:	66 0f 28 d9          	movapd %xmm1,%xmm3
  40317c:	f2 0f 5e d8          	divsd  %xmm0,%xmm3
  403180:	66 0f 28 c3          	movapd %xmm3,%xmm0
  403184:	f2 0f 10 8d 20 ff ff 	movsd  -0xe0(%rbp),%xmm1
  40318b:	ff 
  40318c:	f2 0f 5e c8          	divsd  %xmm0,%xmm1
  403190:	f2 0f 11 8d 20 ff ff 	movsd  %xmm1,-0xe0(%rbp)
  403197:	ff 
  403198:	48 8b 85 28 ff ff ff 	mov    -0xd8(%rbp),%rax
  40319f:	48 89 c7             	mov    %rax,%rdi
  4031a2:	e8 fd f3 ff ff       	callq  4025a4 <_ZNK5hayai10TestResult14RunTimeMinimumEv>
  4031a7:	66 0f 28 c8          	movapd %xmm0,%xmm1
  4031ab:	f2 0f 10 05 dd 47 00 	movsd  0x47dd(%rip),%xmm0        # 407990 <_ZZL18__gthread_active_pvE20__gthread_active_ptr+0x18>
  4031b2:	00 
  4031b3:	f2 0f 5e c8          	divsd  %xmm0,%xmm1
  4031b7:	f2 0f 11 8d 18 ff ff 	movsd  %xmm1,-0xe8(%rbp)
  4031be:	ff 
  4031bf:	48 8b 85 28 ff ff ff 	mov    -0xd8(%rbp),%rax
  4031c6:	48 89 c7             	mov    %rax,%rdi
  4031c9:	e8 6e f3 ff ff       	callq  40253c <_ZNK5hayai10TestResult14RunTimeAverageEv>
  4031ce:	66 0f 28 c8          	movapd %xmm0,%xmm1
  4031d2:	f2 0f 10 05 b6 47 00 	movsd  0x47b6(%rip),%xmm0        # 407990 <_ZZL18__gthread_active_pvE20__gthread_active_ptr+0x18>
  4031d9:	00 
  4031da:	66 0f 28 e1          	movapd %xmm1,%xmm4
  4031de:	f2 0f 5e e0          	divsd  %xmm0,%xmm4
  4031e2:	66 0f 28 c4          	movapd %xmm4,%xmm0
  4031e6:	f2 0f 10 8d 18 ff ff 	movsd  -0xe8(%rbp),%xmm1
  4031ed:	ff 
  4031ee:	66 0f 2e c8          	ucomisd %xmm0,%xmm1
  4031f2:	76 07                	jbe    4031fb <_ZN5hayai16ConsoleOutputter7EndTestERKSsS2_S2_RKNS_10TestResultE+0x349>
  4031f4:	bb c4 78 40 00       	mov    $0x4078c4,%ebx
  4031f9:	eb 05                	jmp    403200 <_ZN5hayai16ConsoleOutputter7EndTestERKSsS2_S2_RKNS_10TestResultE+0x34e>
  4031fb:	bb a0 77 40 00       	mov    $0x4077a0,%ebx
  403200:	48 8b 85 28 ff ff ff 	mov    -0xd8(%rbp),%rax
  403207:	48 89 c7             	mov    %rax,%rdi
  40320a:	e8 95 f3 ff ff       	callq  4025a4 <_ZNK5hayai10TestResult14RunTimeMinimumEv>
  40320f:	66 0f 28 c8          	movapd %xmm0,%xmm1
  403213:	f2 0f 10 05 75 47 00 	movsd  0x4775(%rip),%xmm0        # 407990 <_ZZL18__gthread_active_pvE20__gthread_active_ptr+0x18>
  40321a:	00 
  40321b:	f2 0f 5e c8          	divsd  %xmm0,%xmm1
  40321f:	f2 0f 11 8d 18 ff ff 	movsd  %xmm1,-0xe8(%rbp)
  403226:	ff 
  403227:	48 8b 85 28 ff ff ff 	mov    -0xd8(%rbp),%rax
  40322e:	48 89 c7             	mov    %rax,%rdi
  403231:	e8 06 f3 ff ff       	callq  40253c <_ZNK5hayai10TestResult14RunTimeAverageEv>
  403236:	66 0f 28 c8          	movapd %xmm0,%xmm1
  40323a:	f2 0f 10 05 4e 47 00 	movsd  0x474e(%rip),%xmm0        # 407990 <_ZZL18__gthread_active_pvE20__gthread_active_ptr+0x18>
  403241:	00 
  403242:	66 0f 28 e9          	movapd %xmm1,%xmm5
  403246:	f2 0f 5e e8          	divsd  %xmm0,%xmm5
  40324a:	66 0f 28 c5          	movapd %xmm5,%xmm0
  40324e:	f2 0f 10 8d 18 ff ff 	movsd  -0xe8(%rbp),%xmm1
  403255:	ff 
  403256:	66 0f 2e c8          	ucomisd %xmm0,%xmm1
  40325a:	76 08                	jbe    403264 <_ZN5hayai16ConsoleOutputter7EndTestERKSsS2_S2_RKNS_10TestResultE+0x3b2>
  40325c:	41 bc c4 78 40 00    	mov    $0x4078c4,%r12d
  403262:	eb 06                	jmp    40326a <_ZN5hayai16ConsoleOutputter7EndTestERKSsS2_S2_RKNS_10TestResultE+0x3b8>
  403264:	41 bc a0 77 40 00    	mov    $0x4077a0,%r12d
  40326a:	48 8b 85 28 ff ff ff 	mov    -0xd8(%rbp),%rax
  403271:	48 89 c7             	mov    %rax,%rdi
  403274:	e8 2b f3 ff ff       	callq  4025a4 <_ZNK5hayai10TestResult14RunTimeMinimumEv>
  403279:	66 0f 28 c8          	movapd %xmm0,%xmm1
  40327d:	f2 0f 10 05 0b 47 00 	movsd  0x470b(%rip),%xmm0        # 407990 <_ZZL18__gthread_active_pvE20__gthread_active_ptr+0x18>
  403284:	00 
  403285:	f2 0f 5e c8          	divsd  %xmm0,%xmm1
  403289:	f2 0f 11 8d 18 ff ff 	movsd  %xmm1,-0xe8(%rbp)
  403290:	ff 
  403291:	48 8b 85 28 ff ff ff 	mov    -0xd8(%rbp),%rax
  403298:	48 89 c7             	mov    %rax,%rdi
  40329b:	e8 9c f2 ff ff       	callq  40253c <_ZNK5hayai10TestResult14RunTimeAverageEv>
  4032a0:	66 0f 28 c8          	movapd %xmm0,%xmm1
  4032a4:	f2 0f 10 05 e4 46 00 	movsd  0x46e4(%rip),%xmm0        # 407990 <_ZZL18__gthread_active_pvE20__gthread_active_ptr+0x18>
  4032ab:	00 
  4032ac:	66 0f 28 f1          	movapd %xmm1,%xmm6
  4032b0:	f2 0f 5e f0          	divsd  %xmm0,%xmm6
  4032b4:	66 0f 28 c6          	movapd %xmm6,%xmm0
  4032b8:	f2 0f 10 8d 18 ff ff 	movsd  -0xe8(%rbp),%xmm1
  4032bf:	ff 
  4032c0:	66 0f 2e c8          	ucomisd %xmm0,%xmm1
  4032c4:	76 07                	jbe    4032cd <_ZN5hayai16ConsoleOutputter7EndTestERKSsS2_S2_RKNS_10TestResultE+0x41b>
  4032c6:	b8 05 00 00 00       	mov    $0x5,%eax
  4032cb:	eb 05                	jmp    4032d2 <_ZN5hayai16ConsoleOutputter7EndTestERKSsS2_S2_RKNS_10TestResultE+0x420>
  4032cd:	b8 03 00 00 00       	mov    $0x3,%eax
  4032d2:	89 85 6c ff ff ff    	mov    %eax,-0x94(%rbp)
  4032d8:	48 8b 85 28 ff ff ff 	mov    -0xd8(%rbp),%rax
  4032df:	48 89 c7             	mov    %rax,%rdi
  4032e2:	e8 bd f2 ff ff       	callq  4025a4 <_ZNK5hayai10TestResult14RunTimeMinimumEv>
  4032e7:	66 0f 28 c8          	movapd %xmm0,%xmm1
  4032eb:	f2 0f 10 05 9d 46 00 	movsd  0x469d(%rip),%xmm0        # 407990 <_ZZL18__gthread_active_pvE20__gthread_active_ptr+0x18>
  4032f2:	00 
  4032f3:	f2 0f 5e c8          	divsd  %xmm0,%xmm1
  4032f7:	f2 0f 11 8d 18 ff ff 	movsd  %xmm1,-0xe8(%rbp)
  4032fe:	ff 
  4032ff:	bf 22 00 00 00       	mov    $0x22,%edi
  403304:	e8 43 f1 ff ff       	callq  40244c <_ZSt4setwi>
  403309:	89 c6                	mov    %eax,%esi
  40330b:	bf e0 b1 60 00       	mov    $0x60b1e0,%edi
  403310:	e8 9b e1 ff ff       	callq  4014b0 <_ZStlsIcSt11char_traitsIcEERSt13basic_ostreamIT_T0_ES6_St5_Setw@plt>
  403315:	be c6 78 40 00       	mov    $0x4078c6,%esi
  40331a:	48 89 c7             	mov    %rax,%rdi
  40331d:	e8 2e e0 ff ff       	callq  401350 <_ZStlsISt11char_traitsIcEERSt13basic_ostreamIcT_ES5_PKc@plt>
  403322:	f2 0f 10 85 18 ff ff 	movsd  -0xe8(%rbp),%xmm0
  403329:	ff 
  40332a:	48 89 c7             	mov    %rax,%rdi
  40332d:	e8 1e df ff ff       	callq  401250 <_ZNSolsEd@plt>
  403332:	be 85 78 40 00       	mov    $0x407885,%esi
  403337:	48 89 c7             	mov    %rax,%rdi
  40333a:	e8 11 e0 ff ff       	callq  401350 <_ZStlsISt11char_traitsIcEERSt13basic_ostreamIcT_ES5_PKc@plt>
  40333f:	be d0 78 40 00       	mov    $0x4078d0,%esi
  403344:	48 89 c7             	mov    %rax,%rdi
  403347:	e8 04 e0 ff ff       	callq  401350 <_ZStlsISt11char_traitsIcEERSt13basic_ostreamIcT_ES5_PKc@plt>
  40334c:	be 87 78 40 00       	mov    $0x407887,%esi
  403351:	48 89 c7             	mov    %rax,%rdi
  403354:	e8 f7 df ff ff       	callq  401350 <_ZStlsISt11char_traitsIcEERSt13basic_ostreamIcT_ES5_PKc@plt>
  403359:	48 89 c2             	mov    %rax,%rdx
  40335c:	48 8d 85 6c ff ff ff 	lea    -0x94(%rbp),%rax
  403363:	48 89 c6             	mov    %rax,%rsi
  403366:	48 89 d7             	mov    %rdx,%rdi
  403369:	e8 d0 f5 ff ff       	callq  40293e <_ZN5hayailsERSoRKNS_7Console9TextColorE>
  40336e:	4c 89 e6             	mov    %r12,%rsi
  403371:	48 89 c7             	mov    %rax,%rdi
  403374:	e8 d7 df ff ff       	callq  401350 <_ZStlsISt11char_traitsIcEERSt13basic_ostreamIcT_ES5_PKc@plt>
  403379:	48 89 c2             	mov    %rax,%rdx
  40337c:	48 8b 45 e8          	mov    -0x18(%rbp),%rax
  403380:	48 89 85 18 ff ff ff 	mov    %rax,-0xe8(%rbp)
  403387:	f2 0f 10 85 18 ff ff 	movsd  -0xe8(%rbp),%xmm0
  40338e:	ff 
  40338f:	48 89 d7             	mov    %rdx,%rdi
  403392:	e8 b9 de ff ff       	callq  401250 <_ZNSolsEd@plt>
  403397:	be 85 78 40 00       	mov    $0x407885,%esi
  40339c:	48 89 c7             	mov    %rax,%rdi
  40339f:	e8 ac df ff ff       	callq  401350 <_ZStlsISt11char_traitsIcEERSt13basic_ostreamIcT_ES5_PKc@plt>
  4033a4:	be d0 78 40 00       	mov    $0x4078d0,%esi
  4033a9:	48 89 c7             	mov    %rax,%rdi
  4033ac:	e8 9f df ff ff       	callq  401350 <_ZStlsISt11char_traitsIcEERSt13basic_ostreamIcT_ES5_PKc@plt>
  4033b1:	be d3 78 40 00       	mov    $0x4078d3,%esi
  4033b6:	48 89 c7             	mov    %rax,%rdi
  4033b9:	e8 92 df ff ff       	callq  401350 <_ZStlsISt11char_traitsIcEERSt13basic_ostreamIcT_ES5_PKc@plt>
  4033be:	48 89 de             	mov    %rbx,%rsi
  4033c1:	48 89 c7             	mov    %rax,%rdi
  4033c4:	e8 87 df ff ff       	callq  401350 <_ZStlsISt11char_traitsIcEERSt13basic_ostreamIcT_ES5_PKc@plt>
  4033c9:	f2 0f 10 85 20 ff ff 	movsd  -0xe0(%rbp),%xmm0
  4033d0:	ff 
  4033d1:	48 89 c7             	mov    %rax,%rdi
  4033d4:	e8 77 de ff ff       	callq  401250 <_ZNSolsEd@plt>
  4033d9:	be d7 78 40 00       	mov    $0x4078d7,%esi
  4033de:	48 89 c7             	mov    %rax,%rdi
  4033e1:	e8 6a df ff ff       	callq  401350 <_ZStlsISt11char_traitsIcEERSt13basic_ostreamIcT_ES5_PKc@plt>
  4033e6:	48 89 c2             	mov    %rax,%rdx
  4033e9:	48 8d 85 68 ff ff ff 	lea    -0x98(%rbp),%rax
  4033f0:	48 89 c6             	mov    %rax,%rsi
  4033f3:	48 89 d7             	mov    %rdx,%rdi
  4033f6:	e8 43 f5 ff ff       	callq  40293e <_ZN5hayailsERSoRKNS_7Console9TextColorE>
  4033fb:	be da 78 40 00       	mov    $0x4078da,%esi
  403400:	48 89 c7             	mov    %rax,%rdi
  403403:	e8 48 df ff ff       	callq  401350 <_ZStlsISt11char_traitsIcEERSt13basic_ostreamIcT_ES5_PKc@plt>
  403408:	be 40 14 40 00       	mov    $0x401440,%esi
  40340d:	48 89 c7             	mov    %rax,%rdi
  403410:	e8 fb df ff ff       	callq  401410 <_ZNSolsEPFRSoS_E@plt>
  403415:	48 8b 85 28 ff ff ff 	mov    -0xd8(%rbp),%rax
  40341c:	48 89 c7             	mov    %rax,%rdi
  40341f:	e8 64 f1 ff ff       	callq  402588 <_ZNK5hayai10TestResult14RunTimeMaximumEv>
  403424:	66 0f 28 c8          	movapd %xmm0,%xmm1
  403428:	f2 0f 10 05 60 45 00 	movsd  0x4560(%rip),%xmm0        # 407990 <_ZZL18__gthread_active_pvE20__gthread_active_ptr+0x18>
  40342f:	00 
  403430:	f2 0f 5e c8          	divsd  %xmm0,%xmm1
  403434:	f2 0f 11 8d 20 ff ff 	movsd  %xmm1,-0xe0(%rbp)
  40343b:	ff 
  40343c:	48 8b 85 28 ff ff ff 	mov    -0xd8(%rbp),%rax
  403443:	48 89 c7             	mov    %rax,%rdi
  403446:	e8 f1 f0 ff ff       	callq  40253c <_ZNK5hayai10TestResult14RunTimeAverageEv>
  40344b:	66 0f 28 c8          	movapd %xmm0,%xmm1
  40344f:	f2 0f 10 05 39 45 00 	movsd  0x4539(%rip),%xmm0        # 407990 <_ZZL18__gthread_active_pvE20__gthread_active_ptr+0x18>
  403456:	00 
  403457:	66 0f 28 f9          	movapd %xmm1,%xmm7
  40345b:	f2 0f 5e f8          	divsd  %xmm0,%xmm7
  40345f:	66 0f 28 c7          	movapd %xmm7,%xmm0
  403463:	f2 0f 10 8d 20 ff ff 	movsd  -0xe0(%rbp),%xmm1
  40346a:	ff 
  40346b:	f2 0f 5c c8          	subsd  %xmm0,%xmm1
  40346f:	66 48 0f 7e c8       	movq   %xmm1,%rax
  403474:	48 89 45 e0          	mov    %rax,-0x20(%rbp)
  403478:	c7 85 70 ff ff ff 00 	movl   $0x0,-0x90(%rbp)
  40347f:	00 00 00 
  403482:	f2 0f 10 4d e0       	movsd  -0x20(%rbp),%xmm1
  403487:	f2 0f 10 05 09 45 00 	movsd  0x4509(%rip),%xmm0        # 407998 <_ZZL18__gthread_active_pvE20__gthread_active_ptr+0x20>
  40348e:	00 
  40348f:	f2 0f 59 c8          	mulsd  %xmm0,%xmm1
  403493:	f2 0f 11 8d 20 ff ff 	movsd  %xmm1,-0xe0(%rbp)
  40349a:	ff 
  40349b:	48 8b 85 28 ff ff ff 	mov    -0xd8(%rbp),%rax
  4034a2:	48 89 c7             	mov    %rax,%rdi
  4034a5:	e8 92 f0 ff ff       	callq  40253c <_ZNK5hayai10TestResult14RunTimeAverageEv>
  4034aa:	66 0f 28 c8          	movapd %xmm0,%xmm1
  4034ae:	f2 0f 10 05 da 44 00 	movsd  0x44da(%rip),%xmm0        # 407990 <_ZZL18__gthread_active_pvE20__gthread_active_ptr+0x18>
  4034b5:	00 
  4034b6:	66 0f 28 d1          	movapd %xmm1,%xmm2
  4034ba:	f2 0f 5e d0          	divsd  %xmm0,%xmm2
  4034be:	66 0f 28 c2          	movapd %xmm2,%xmm0
  4034c2:	f2 0f 10 8d 20 ff ff 	movsd  -0xe0(%rbp),%xmm1
  4034c9:	ff 
  4034ca:	f2 0f 5e c8          	divsd  %xmm0,%xmm1
  4034ce:	f2 0f 11 8d 20 ff ff 	movsd  %xmm1,-0xe0(%rbp)
  4034d5:	ff 
  4034d6:	48 8b 85 28 ff ff ff 	mov    -0xd8(%rbp),%rax
  4034dd:	48 89 c7             	mov    %rax,%rdi
  4034e0:	e8 a3 f0 ff ff       	callq  402588 <_ZNK5hayai10TestResult14RunTimeMaximumEv>
  4034e5:	66 0f 28 c8          	movapd %xmm0,%xmm1
  4034e9:	f2 0f 10 05 9f 44 00 	movsd  0x449f(%rip),%xmm0        # 407990 <_ZZL18__gthread_active_pvE20__gthread_active_ptr+0x18>
  4034f0:	00 
  4034f1:	f2 0f 5e c8          	divsd  %xmm0,%xmm1
  4034f5:	f2 0f 11 8d 18 ff ff 	movsd  %xmm1,-0xe8(%rbp)
  4034fc:	ff 
  4034fd:	48 8b 85 28 ff ff ff 	mov    -0xd8(%rbp),%rax
  403504:	48 89 c7             	mov    %rax,%rdi
  403507:	e8 30 f0 ff ff       	callq  40253c <_ZNK5hayai10TestResult14RunTimeAverageEv>
  40350c:	66 0f 28 c8          	movapd %xmm0,%xmm1
  403510:	f2 0f 10 05 78 44 00 	movsd  0x4478(%rip),%xmm0        # 407990 <_ZZL18__gthread_active_pvE20__gthread_active_ptr+0x18>
  403517:	00 
  403518:	66 0f 28 d9          	movapd %xmm1,%xmm3
  40351c:	f2 0f 5e d8          	divsd  %xmm0,%xmm3
  403520:	66 0f 28 c3          	movapd %xmm3,%xmm0
  403524:	f2 0f 10 8d 18 ff ff 	movsd  -0xe8(%rbp),%xmm1
  40352b:	ff 
  40352c:	66 0f 2e c8          	ucomisd %xmm0,%xmm1
  403530:	76 07                	jbe    403539 <_ZN5hayai16ConsoleOutputter7EndTestERKSsS2_S2_RKNS_10TestResultE+0x687>
  403532:	bb c4 78 40 00       	mov    $0x4078c4,%ebx
  403537:	eb 05                	jmp    40353e <_ZN5hayai16ConsoleOutputter7EndTestERKSsS2_S2_RKNS_10TestResultE+0x68c>
  403539:	bb a0 77 40 00       	mov    $0x4077a0,%ebx
  40353e:	48 8b 85 28 ff ff ff 	mov    -0xd8(%rbp),%rax
  403545:	48 89 c7             	mov    %rax,%rdi
  403548:	e8 3b f0 ff ff       	callq  402588 <_ZNK5hayai10TestResult14RunTimeMaximumEv>
  40354d:	66 0f 28 c8          	movapd %xmm0,%xmm1
  403551:	f2 0f 10 05 37 44 00 	movsd  0x4437(%rip),%xmm0        # 407990 <_ZZL18__gthread_active_pvE20__gthread_active_ptr+0x18>
  403558:	00 
  403559:	f2 0f 5e c8          	divsd  %xmm0,%xmm1
  40355d:	f2 0f 11 8d 18 ff ff 	movsd  %xmm1,-0xe8(%rbp)
  403564:	ff 
  403565:	48 8b 85 28 ff ff ff 	mov    -0xd8(%rbp),%rax
  40356c:	48 89 c7             	mov    %rax,%rdi
  40356f:	e8 c8 ef ff ff       	callq  40253c <_ZNK5hayai10TestResult14RunTimeAverageEv>
  403574:	66 0f 28 c8          	movapd %xmm0,%xmm1
  403578:	f2 0f 10 05 10 44 00 	movsd  0x4410(%rip),%xmm0        # 407990 <_ZZL18__gthread_active_pvE20__gthread_active_ptr+0x18>
  40357f:	00 
  403580:	66 0f 28 e1          	movapd %xmm1,%xmm4
  403584:	f2 0f 5e e0          	divsd  %xmm0,%xmm4
  403588:	66 0f 28 c4          	movapd %xmm4,%xmm0
  40358c:	f2 0f 10 8d 18 ff ff 	movsd  -0xe8(%rbp),%xmm1
  403593:	ff 
  403594:	66 0f 2e c8          	ucomisd %xmm0,%xmm1
  403598:	76 08                	jbe    4035a2 <_ZN5hayai16ConsoleOutputter7EndTestERKSsS2_S2_RKNS_10TestResultE+0x6f0>
  40359a:	41 bc c4 78 40 00    	mov    $0x4078c4,%r12d
  4035a0:	eb 06                	jmp    4035a8 <_ZN5hayai16ConsoleOutputter7EndTestERKSsS2_S2_RKNS_10TestResultE+0x6f6>
  4035a2:	41 bc a0 77 40 00    	mov    $0x4077a0,%r12d
  4035a8:	48 8b 85 28 ff ff ff 	mov    -0xd8(%rbp),%rax
  4035af:	48 89 c7             	mov    %rax,%rdi
  4035b2:	e8 d1 ef ff ff       	callq  402588 <_ZNK5hayai10TestResult14RunTimeMaximumEv>
  4035b7:	66 0f 28 c8          	movapd %xmm0,%xmm1
  4035bb:	f2 0f 10 05 cd 43 00 	movsd  0x43cd(%rip),%xmm0        # 407990 <_ZZL18__gthread_active_pvE20__gthread_active_ptr+0x18>
  4035c2:	00 
  4035c3:	f2 0f 5e c8          	divsd  %xmm0,%xmm1
  4035c7:	f2 0f 11 8d 18 ff ff 	movsd  %xmm1,-0xe8(%rbp)
  4035ce:	ff 
  4035cf:	48 8b 85 28 ff ff ff 	mov    -0xd8(%rbp),%rax
  4035d6:	48 89 c7             	mov    %rax,%rdi
  4035d9:	e8 5e ef ff ff       	callq  40253c <_ZNK5hayai10TestResult14RunTimeAverageEv>
  4035de:	66 0f 28 c8          	movapd %xmm0,%xmm1
  4035e2:	f2 0f 10 05 a6 43 00 	movsd  0x43a6(%rip),%xmm0        # 407990 <_ZZL18__gthread_active_pvE20__gthread_active_ptr+0x18>
  4035e9:	00 
  4035ea:	66 0f 28 e9          	movapd %xmm1,%xmm5
  4035ee:	f2 0f 5e e8          	divsd  %xmm0,%xmm5
  4035f2:	66 0f 28 c5          	movapd %xmm5,%xmm0
  4035f6:	f2 0f 10 8d 18 ff ff 	movsd  -0xe8(%rbp),%xmm1
  4035fd:	ff 
  4035fe:	66 0f 2e c8          	ucomisd %xmm0,%xmm1
  403602:	76 07                	jbe    40360b <_ZN5hayai16ConsoleOutputter7EndTestERKSsS2_S2_RKNS_10TestResultE+0x759>
  403604:	b8 05 00 00 00       	mov    $0x5,%eax
  403609:	eb 05                	jmp    403610 <_ZN5hayai16ConsoleOutputter7EndTestERKSsS2_S2_RKNS_10TestResultE+0x75e>
  40360b:	b8 03 00 00 00       	mov    $0x3,%eax
  403610:	89 85 74 ff ff ff    	mov    %eax,-0x8c(%rbp)
  403616:	48 8b 85 28 ff ff ff 	mov    -0xd8(%rbp),%rax
  40361d:	48 89 c7             	mov    %rax,%rdi
  403620:	e8 63 ef ff ff       	callq  402588 <_ZNK5hayai10TestResult14RunTimeMaximumEv>
  403625:	66 0f 28 c8          	movapd %xmm0,%xmm1
  403629:	f2 0f 10 05 5f 43 00 	movsd  0x435f(%rip),%xmm0        # 407990 <_ZZL18__gthread_active_pvE20__gthread_active_ptr+0x18>
  403630:	00 
  403631:	f2 0f 5e c8          	divsd  %xmm0,%xmm1
  403635:	f2 0f 11 8d 18 ff ff 	movsd  %xmm1,-0xe8(%rbp)
  40363c:	ff 
  40363d:	bf 22 00 00 00       	mov    $0x22,%edi
  403642:	e8 05 ee ff ff       	callq  40244c <_ZSt4setwi>
  403647:	89 c6                	mov    %eax,%esi
  403649:	bf e0 b1 60 00       	mov    $0x60b1e0,%edi
  40364e:	e8 5d de ff ff       	callq  4014b0 <_ZStlsIcSt11char_traitsIcEERSt13basic_ostreamIT_T0_ES6_St5_Setw@plt>
  403653:	be dc 78 40 00       	mov    $0x4078dc,%esi
  403658:	48 89 c7             	mov    %rax,%rdi
  40365b:	e8 f0 dc ff ff       	callq  401350 <_ZStlsISt11char_traitsIcEERSt13basic_ostreamIcT_ES5_PKc@plt>
  403660:	f2 0f 10 85 18 ff ff 	movsd  -0xe8(%rbp),%xmm0
  403667:	ff 
  403668:	48 89 c7             	mov    %rax,%rdi
  40366b:	e8 e0 db ff ff       	callq  401250 <_ZNSolsEd@plt>
  403670:	be 85 78 40 00       	mov    $0x407885,%esi
  403675:	48 89 c7             	mov    %rax,%rdi
  403678:	e8 d3 dc ff ff       	callq  401350 <_ZStlsISt11char_traitsIcEERSt13basic_ostreamIcT_ES5_PKc@plt>
  40367d:	be d0 78 40 00       	mov    $0x4078d0,%esi
  403682:	48 89 c7             	mov    %rax,%rdi
  403685:	e8 c6 dc ff ff       	callq  401350 <_ZStlsISt11char_traitsIcEERSt13basic_ostreamIcT_ES5_PKc@plt>
  40368a:	be 87 78 40 00       	mov    $0x407887,%esi
  40368f:	48 89 c7             	mov    %rax,%rdi
  403692:	e8 b9 dc ff ff       	callq  401350 <_ZStlsISt11char_traitsIcEERSt13basic_ostreamIcT_ES5_PKc@plt>
  403697:	48 89 c2             	mov    %rax,%rdx
  40369a:	48 8d 85 74 ff ff ff 	lea    -0x8c(%rbp),%rax
  4036a1:	48 89 c6             	mov    %rax,%rsi
  4036a4:	48 89 d7             	mov    %rdx,%rdi
  4036a7:	e8 92 f2 ff ff       	callq  40293e <_ZN5hayailsERSoRKNS_7Console9TextColorE>
  4036ac:	4c 89 e6             	mov    %r12,%rsi
  4036af:	48 89 c7             	mov    %rax,%rdi
  4036b2:	e8 99 dc ff ff       	callq  401350 <_ZStlsISt11char_traitsIcEERSt13basic_ostreamIcT_ES5_PKc@plt>
  4036b7:	48 89 c2             	mov    %rax,%rdx
  4036ba:	48 8b 45 e0          	mov    -0x20(%rbp),%rax
  4036be:	48 89 85 18 ff ff ff 	mov    %rax,-0xe8(%rbp)
  4036c5:	f2 0f 10 85 18 ff ff 	movsd  -0xe8(%rbp),%xmm0
  4036cc:	ff 
  4036cd:	48 89 d7             	mov    %rdx,%rdi
  4036d0:	e8 7b db ff ff       	callq  401250 <_ZNSolsEd@plt>
  4036d5:	be 85 78 40 00       	mov    $0x407885,%esi
  4036da:	48 89 c7             	mov    %rax,%rdi
  4036dd:	e8 6e dc ff ff       	callq  401350 <_ZStlsISt11char_traitsIcEERSt13basic_ostreamIcT_ES5_PKc@plt>
  4036e2:	be d0 78 40 00       	mov    $0x4078d0,%esi
  4036e7:	48 89 c7             	mov    %rax,%rdi
  4036ea:	e8 61 dc ff ff       	callq  401350 <_ZStlsISt11char_traitsIcEERSt13basic_ostreamIcT_ES5_PKc@plt>
  4036ef:	be d3 78 40 00       	mov    $0x4078d3,%esi
  4036f4:	48 89 c7             	mov    %rax,%rdi
  4036f7:	e8 54 dc ff ff       	callq  401350 <_ZStlsISt11char_traitsIcEERSt13basic_ostreamIcT_ES5_PKc@plt>
  4036fc:	48 89 de             	mov    %rbx,%rsi
  4036ff:	48 89 c7             	mov    %rax,%rdi
  403702:	e8 49 dc ff ff       	callq  401350 <_ZStlsISt11char_traitsIcEERSt13basic_ostreamIcT_ES5_PKc@plt>
  403707:	f2 0f 10 85 20 ff ff 	movsd  -0xe0(%rbp),%xmm0
  40370e:	ff 
  40370f:	48 89 c7             	mov    %rax,%rdi
  403712:	e8 39 db ff ff       	callq  401250 <_ZNSolsEd@plt>
  403717:	be d7 78 40 00       	mov    $0x4078d7,%esi
  40371c:	48 89 c7             	mov    %rax,%rdi
  40371f:	e8 2c dc ff ff       	callq  401350 <_ZStlsISt11char_traitsIcEERSt13basic_ostreamIcT_ES5_PKc@plt>
  403724:	48 89 c2             	mov    %rax,%rdx
  403727:	48 8d 85 70 ff ff ff 	lea    -0x90(%rbp),%rax
  40372e:	48 89 c6             	mov    %rax,%rsi
  403731:	48 89 d7             	mov    %rdx,%rdi
  403734:	e8 05 f2 ff ff       	callq  40293e <_ZN5hayailsERSoRKNS_7Console9TextColorE>
  403739:	be da 78 40 00       	mov    $0x4078da,%esi
  40373e:	48 89 c7             	mov    %rax,%rdi
  403741:	e8 0a dc ff ff       	callq  401350 <_ZStlsISt11char_traitsIcEERSt13basic_ostreamIcT_ES5_PKc@plt>
  403746:	be 40 14 40 00       	mov    $0x401440,%esi
  40374b:	48 89 c7             	mov    %rax,%rdi
  40374e:	e8 bd dc ff ff       	callq  401410 <_ZNSolsEPFRSoS_E@plt>
  403753:	bf 05 00 00 00       	mov    $0x5,%edi
  403758:	e8 e3 ec ff ff       	callq  402440 <_ZSt12setprecisioni>
  40375d:	89 c6                	mov    %eax,%esi
  40375f:	bf e0 b1 60 00       	mov    $0x60b1e0,%edi
  403764:	e8 07 db ff ff       	callq  401270 <_ZStlsIcSt11char_traitsIcEERSt13basic_ostreamIT_T0_ES6_St13_Setprecision@plt>
  403769:	bf 22 00 00 00       	mov    $0x22,%edi
  40376e:	e8 d9 ec ff ff       	callq  40244c <_ZSt4setwi>
  403773:	89 c6                	mov    %eax,%esi
  403775:	bf e0 b1 60 00       	mov    $0x60b1e0,%edi
  40377a:	e8 31 dd ff ff       	callq  4014b0 <_ZStlsIcSt11char_traitsIcEERSt13basic_ostreamIT_T0_ES6_St5_Setw@plt>
  40377f:	be a0 77 40 00       	mov    $0x4077a0,%esi
  403784:	48 89 c7             	mov    %rax,%rdi
  403787:	e8 c4 db ff ff       	callq  401350 <_ZStlsISt11char_traitsIcEERSt13basic_ostreamIcT_ES5_PKc@plt>
  40378c:	be 40 14 40 00       	mov    $0x401440,%esi
  403791:	48 89 c7             	mov    %rax,%rdi
  403794:	e8 77 dc ff ff       	callq  401410 <_ZNSolsEPFRSoS_E@plt>
  403799:	48 8b 85 28 ff ff ff 	mov    -0xd8(%rbp),%rax
  4037a0:	48 89 c7             	mov    %rax,%rdi
  4037a3:	e8 18 ee ff ff       	callq  4025c0 <_ZNK5hayai10TestResult20RunsPerSecondAverageEv>
  4037a8:	f2 0f 11 85 20 ff ff 	movsd  %xmm0,-0xe0(%rbp)
  4037af:	ff 
  4037b0:	bf 22 00 00 00       	mov    $0x22,%edi
  4037b5:	e8 92 ec ff ff       	callq  40244c <_ZSt4setwi>
  4037ba:	89 c6                	mov    %eax,%esi
  4037bc:	bf e0 b1 60 00       	mov    $0x60b1e0,%edi
  4037c1:	e8 ea dc ff ff       	callq  4014b0 <_ZStlsIcSt11char_traitsIcEERSt13basic_ostreamIT_T0_ES6_St5_Setw@plt>
  4037c6:	be e6 78 40 00       	mov    $0x4078e6,%esi
  4037cb:	48 89 c7             	mov    %rax,%rdi
  4037ce:	e8 7d db ff ff       	callq  401350 <_ZStlsISt11char_traitsIcEERSt13basic_ostreamIcT_ES5_PKc@plt>
  4037d3:	f2 0f 10 85 20 ff ff 	movsd  -0xe0(%rbp),%xmm0
  4037da:	ff 
  4037db:	48 89 c7             	mov    %rax,%rdi
  4037de:	e8 6d da ff ff       	callq  401250 <_ZNSolsEd@plt>
  4037e3:	be fc 78 40 00       	mov    $0x4078fc,%esi
  4037e8:	48 89 c7             	mov    %rax,%rdi
  4037eb:	e8 60 db ff ff       	callq  401350 <_ZStlsISt11char_traitsIcEERSt13basic_ostreamIcT_ES5_PKc@plt>
  4037f0:	be 40 14 40 00       	mov    $0x401440,%esi
  4037f5:	48 89 c7             	mov    %rax,%rdi
  4037f8:	e8 13 dc ff ff       	callq  401410 <_ZNSolsEPFRSoS_E@plt>
  4037fd:	48 8b 85 28 ff ff ff 	mov    -0xd8(%rbp),%rax
  403804:	48 89 c7             	mov    %rax,%rdi
  403807:	e8 de ed ff ff       	callq  4025ea <_ZNK5hayai10TestResult20RunsPerSecondMaximumEv>
  40380c:	f2 0f 11 85 20 ff ff 	movsd  %xmm0,-0xe0(%rbp)
  403813:	ff 
  403814:	48 8b 85 28 ff ff ff 	mov    -0xd8(%rbp),%rax
  40381b:	48 89 c7             	mov    %rax,%rdi
  40381e:	e8 9d ed ff ff       	callq  4025c0 <_ZNK5hayai10TestResult20RunsPerSecondAverageEv>
  403823:	f2 0f 10 b5 20 ff ff 	movsd  -0xe0(%rbp),%xmm6
  40382a:	ff 
  40382b:	f2 0f 5c f0          	subsd  %xmm0,%xmm6
  40382f:	66 48 0f 7e f0       	movq   %xmm6,%rax
  403834:	48 89 45 d8          	mov    %rax,-0x28(%rbp)
  403838:	c7 85 78 ff ff ff 00 	movl   $0x0,-0x88(%rbp)
  40383f:	00 00 00 
  403842:	f2 0f 10 4d d8       	movsd  -0x28(%rbp),%xmm1
  403847:	f2 0f 10 05 49 41 00 	movsd  0x4149(%rip),%xmm0        # 407998 <_ZZL18__gthread_active_pvE20__gthread_active_ptr+0x20>
  40384e:	00 
  40384f:	f2 0f 59 c8          	mulsd  %xmm0,%xmm1
  403853:	f2 0f 11 8d 20 ff ff 	movsd  %xmm1,-0xe0(%rbp)
  40385a:	ff 
  40385b:	48 8b 85 28 ff ff ff 	mov    -0xd8(%rbp),%rax
  403862:	48 89 c7             	mov    %rax,%rdi
  403865:	e8 56 ed ff ff       	callq  4025c0 <_ZNK5hayai10TestResult20RunsPerSecondAverageEv>
  40386a:	f2 0f 10 8d 20 ff ff 	movsd  -0xe0(%rbp),%xmm1
  403871:	ff 
  403872:	f2 0f 5e c8          	divsd  %xmm0,%xmm1
  403876:	f2 0f 11 8d 20 ff ff 	movsd  %xmm1,-0xe0(%rbp)
  40387d:	ff 
  40387e:	48 8b 85 28 ff ff ff 	mov    -0xd8(%rbp),%rax
  403885:	48 89 c7             	mov    %rax,%rdi
  403888:	e8 5d ed ff ff       	callq  4025ea <_ZNK5hayai10TestResult20RunsPerSecondMaximumEv>
  40388d:	f2 0f 11 85 18 ff ff 	movsd  %xmm0,-0xe8(%rbp)
  403894:	ff 
  403895:	48 8b 85 28 ff ff ff 	mov    -0xd8(%rbp),%rax
  40389c:	48 89 c7             	mov    %rax,%rdi
  40389f:	e8 1c ed ff ff       	callq  4025c0 <_ZNK5hayai10TestResult20RunsPerSecondAverageEv>
  4038a4:	f2 0f 10 95 18 ff ff 	movsd  -0xe8(%rbp),%xmm2
  4038ab:	ff 
  4038ac:	66 0f 2e d0          	ucomisd %xmm0,%xmm2
  4038b0:	76 07                	jbe    4038b9 <_ZN5hayai16ConsoleOutputter7EndTestERKSsS2_S2_RKNS_10TestResultE+0xa07>
  4038b2:	bb c4 78 40 00       	mov    $0x4078c4,%ebx
  4038b7:	eb 05                	jmp    4038be <_ZN5hayai16ConsoleOutputter7EndTestERKSsS2_S2_RKNS_10TestResultE+0xa0c>
  4038b9:	bb a0 77 40 00       	mov    $0x4077a0,%ebx
  4038be:	48 8b 85 28 ff ff ff 	mov    -0xd8(%rbp),%rax
  4038c5:	48 89 c7             	mov    %rax,%rdi
  4038c8:	e8 1d ed ff ff       	callq  4025ea <_ZNK5hayai10TestResult20RunsPerSecondMaximumEv>
  4038cd:	f2 0f 11 85 18 ff ff 	movsd  %xmm0,-0xe8(%rbp)
  4038d4:	ff 
  4038d5:	48 8b 85 28 ff ff ff 	mov    -0xd8(%rbp),%rax
  4038dc:	48 89 c7             	mov    %rax,%rdi
  4038df:	e8 dc ec ff ff       	callq  4025c0 <_ZNK5hayai10TestResult20RunsPerSecondAverageEv>
  4038e4:	f2 0f 10 9d 18 ff ff 	movsd  -0xe8(%rbp),%xmm3
  4038eb:	ff 
  4038ec:	66 0f 2e d8          	ucomisd %xmm0,%xmm3
  4038f0:	76 08                	jbe    4038fa <_ZN5hayai16ConsoleOutputter7EndTestERKSsS2_S2_RKNS_10TestResultE+0xa48>
  4038f2:	41 bc c4 78 40 00    	mov    $0x4078c4,%r12d
  4038f8:	eb 06                	jmp    403900 <_ZN5hayai16ConsoleOutputter7EndTestERKSsS2_S2_RKNS_10TestResultE+0xa4e>
  4038fa:	41 bc a0 77 40 00    	mov    $0x4077a0,%r12d
  403900:	48 8b 85 28 ff ff ff 	mov    -0xd8(%rbp),%rax
  403907:	48 89 c7             	mov    %rax,%rdi
  40390a:	e8 db ec ff ff       	callq  4025ea <_ZNK5hayai10TestResult20RunsPerSecondMaximumEv>
  40390f:	f2 0f 11 85 18 ff ff 	movsd  %xmm0,-0xe8(%rbp)
  403916:	ff 
  403917:	48 8b 85 28 ff ff ff 	mov    -0xd8(%rbp),%rax
  40391e:	48 89 c7             	mov    %rax,%rdi
  403921:	e8 9a ec ff ff       	callq  4025c0 <_ZNK5hayai10TestResult20RunsPerSecondAverageEv>
  403926:	66 0f 2e 85 18 ff ff 	ucomisd -0xe8(%rbp),%xmm0
  40392d:	ff 
  40392e:	76 07                	jbe    403937 <_ZN5hayai16ConsoleOutputter7EndTestERKSsS2_S2_RKNS_10TestResultE+0xa85>
  403930:	b8 05 00 00 00       	mov    $0x5,%eax
  403935:	eb 05                	jmp    40393c <_ZN5hayai16ConsoleOutputter7EndTestERKSsS2_S2_RKNS_10TestResultE+0xa8a>
  403937:	b8 03 00 00 00       	mov    $0x3,%eax
  40393c:	89 85 7c ff ff ff    	mov    %eax,-0x84(%rbp)
  403942:	48 8b 85 28 ff ff ff 	mov    -0xd8(%rbp),%rax
  403949:	48 89 c7             	mov    %rax,%rdi
  40394c:	e8 99 ec ff ff       	callq  4025ea <_ZNK5hayai10TestResult20RunsPerSecondMaximumEv>
  403951:	f2 0f 11 85 18 ff ff 	movsd  %xmm0,-0xe8(%rbp)
  403958:	ff 
  403959:	bf 22 00 00 00       	mov    $0x22,%edi
  40395e:	e8 e9 ea ff ff       	callq  40244c <_ZSt4setwi>
  403963:	89 c6                	mov    %eax,%esi
  403965:	bf e0 b1 60 00       	mov    $0x60b1e0,%edi
  40396a:	e8 41 db ff ff       	callq  4014b0 <_ZStlsIcSt11char_traitsIcEERSt13basic_ostreamIT_T0_ES6_St5_Setw@plt>
  40396f:	be 04 79 40 00       	mov    $0x407904,%esi
  403974:	48 89 c7             	mov    %rax,%rdi
  403977:	e8 d4 d9 ff ff       	callq  401350 <_ZStlsISt11char_traitsIcEERSt13basic_ostreamIcT_ES5_PKc@plt>
  40397c:	f2 0f 10 85 18 ff ff 	movsd  -0xe8(%rbp),%xmm0
  403983:	ff 
  403984:	48 89 c7             	mov    %rax,%rdi
  403987:	e8 c4 d8 ff ff       	callq  401250 <_ZNSolsEd@plt>
  40398c:	be 85 78 40 00       	mov    $0x407885,%esi
  403991:	48 89 c7             	mov    %rax,%rdi
  403994:	e8 b7 d9 ff ff       	callq  401350 <_ZStlsISt11char_traitsIcEERSt13basic_ostreamIcT_ES5_PKc@plt>
  403999:	be 17 79 40 00       	mov    $0x407917,%esi
  40399e:	48 89 c7             	mov    %rax,%rdi
  4039a1:	e8 aa d9 ff ff       	callq  401350 <_ZStlsISt11char_traitsIcEERSt13basic_ostreamIcT_ES5_PKc@plt>
  4039a6:	be 87 78 40 00       	mov    $0x407887,%esi
  4039ab:	48 89 c7             	mov    %rax,%rdi
  4039ae:	e8 9d d9 ff ff       	callq  401350 <_ZStlsISt11char_traitsIcEERSt13basic_ostreamIcT_ES5_PKc@plt>
  4039b3:	48 89 c2             	mov    %rax,%rdx
  4039b6:	48 8d 85 7c ff ff ff 	lea    -0x84(%rbp),%rax
  4039bd:	48 89 c6             	mov    %rax,%rsi
  4039c0:	48 89 d7             	mov    %rdx,%rdi
  4039c3:	e8 76 ef ff ff       	callq  40293e <_ZN5hayailsERSoRKNS_7Console9TextColorE>
  4039c8:	4c 89 e6             	mov    %r12,%rsi
  4039cb:	48 89 c7             	mov    %rax,%rdi
  4039ce:	e8 7d d9 ff ff       	callq  401350 <_ZStlsISt11char_traitsIcEERSt13basic_ostreamIcT_ES5_PKc@plt>
  4039d3:	48 89 c2             	mov    %rax,%rdx
  4039d6:	48 8b 45 d8          	mov    -0x28(%rbp),%rax
  4039da:	48 89 85 18 ff ff ff 	mov    %rax,-0xe8(%rbp)
  4039e1:	f2 0f 10 85 18 ff ff 	movsd  -0xe8(%rbp),%xmm0
  4039e8:	ff 
  4039e9:	48 89 d7             	mov    %rdx,%rdi
  4039ec:	e8 5f d8 ff ff       	callq  401250 <_ZNSolsEd@plt>
  4039f1:	be 85 78 40 00       	mov    $0x407885,%esi
  4039f6:	48 89 c7             	mov    %rax,%rdi
  4039f9:	e8 52 d9 ff ff       	callq  401350 <_ZStlsISt11char_traitsIcEERSt13basic_ostreamIcT_ES5_PKc@plt>
  4039fe:	be 17 79 40 00       	mov    $0x407917,%esi
  403a03:	48 89 c7             	mov    %rax,%rdi
  403a06:	e8 45 d9 ff ff       	callq  401350 <_ZStlsISt11char_traitsIcEERSt13basic_ostreamIcT_ES5_PKc@plt>
  403a0b:	be d3 78 40 00       	mov    $0x4078d3,%esi
  403a10:	48 89 c7             	mov    %rax,%rdi
  403a13:	e8 38 d9 ff ff       	callq  401350 <_ZStlsISt11char_traitsIcEERSt13basic_ostreamIcT_ES5_PKc@plt>
  403a18:	48 89 de             	mov    %rbx,%rsi
  403a1b:	48 89 c7             	mov    %rax,%rdi
  403a1e:	e8 2d d9 ff ff       	callq  401350 <_ZStlsISt11char_traitsIcEERSt13basic_ostreamIcT_ES5_PKc@plt>
  403a23:	f2 0f 10 85 20 ff ff 	movsd  -0xe0(%rbp),%xmm0
  403a2a:	ff 
  403a2b:	48 89 c7             	mov    %rax,%rdi
  403a2e:	e8 1d d8 ff ff       	callq  401250 <_ZNSolsEd@plt>
  403a33:	be d7 78 40 00       	mov    $0x4078d7,%esi
  403a38:	48 89 c7             	mov    %rax,%rdi
  403a3b:	e8 10 d9 ff ff       	callq  401350 <_ZStlsISt11char_traitsIcEERSt13basic_ostreamIcT_ES5_PKc@plt>
  403a40:	48 89 c2             	mov    %rax,%rdx
  403a43:	48 8d 85 78 ff ff ff 	lea    -0x88(%rbp),%rax
  403a4a:	48 89 c6             	mov    %rax,%rsi
  403a4d:	48 89 d7             	mov    %rdx,%rdi
  403a50:	e8 e9 ee ff ff       	callq  40293e <_ZN5hayailsERSoRKNS_7Console9TextColorE>
  403a55:	be da 78 40 00       	mov    $0x4078da,%esi
  403a5a:	48 89 c7             	mov    %rax,%rdi
  403a5d:	e8 ee d8 ff ff       	callq  401350 <_ZStlsISt11char_traitsIcEERSt13basic_ostreamIcT_ES5_PKc@plt>
  403a62:	be 40 14 40 00       	mov    $0x401440,%esi
  403a67:	48 89 c7             	mov    %rax,%rdi
  403a6a:	e8 a1 d9 ff ff       	callq  401410 <_ZNSolsEPFRSoS_E@plt>
  403a6f:	48 8b 85 28 ff ff ff 	mov    -0xd8(%rbp),%rax
  403a76:	48 89 c7             	mov    %rax,%rdi
  403a79:	e8 8c eb ff ff       	callq  40260a <_ZNK5hayai10TestResult20RunsPerSecondMinimumEv>
  403a7e:	f2 0f 11 85 20 ff ff 	movsd  %xmm0,-0xe0(%rbp)
  403a85:	ff 
  403a86:	48 8b 85 28 ff ff ff 	mov    -0xd8(%rbp),%rax
  403a8d:	48 89 c7             	mov    %rax,%rdi
  403a90:	e8 2b eb ff ff       	callq  4025c0 <_ZNK5hayai10TestResult20RunsPerSecondAverageEv>
  403a95:	f2 0f 10 bd 20 ff ff 	movsd  -0xe0(%rbp),%xmm7
  403a9c:	ff 
  403a9d:	f2 0f 5c f8          	subsd  %xmm0,%xmm7
  403aa1:	66 48 0f 7e f8       	movq   %xmm7,%rax
  403aa6:	48 89 45 d0          	mov    %rax,-0x30(%rbp)
  403aaa:	c7 45 80 00 00 00 00 	movl   $0x0,-0x80(%rbp)
  403ab1:	f2 0f 10 4d d0       	movsd  -0x30(%rbp),%xmm1
  403ab6:	f2 0f 10 05 da 3e 00 	movsd  0x3eda(%rip),%xmm0        # 407998 <_ZZL18__gthread_active_pvE20__gthread_active_ptr+0x20>
  403abd:	00 
  403abe:	f2 0f 59 c8          	mulsd  %xmm0,%xmm1
  403ac2:	f2 0f 11 8d 20 ff ff 	movsd  %xmm1,-0xe0(%rbp)
  403ac9:	ff 
  403aca:	48 8b 85 28 ff ff ff 	mov    -0xd8(%rbp),%rax
  403ad1:	48 89 c7             	mov    %rax,%rdi
  403ad4:	e8 e7 ea ff ff       	callq  4025c0 <_ZNK5hayai10TestResult20RunsPerSecondAverageEv>
  403ad9:	f2 0f 10 8d 20 ff ff 	movsd  -0xe0(%rbp),%xmm1
  403ae0:	ff 
  403ae1:	f2 0f 5e c8          	divsd  %xmm0,%xmm1
  403ae5:	f2 0f 11 8d 20 ff ff 	movsd  %xmm1,-0xe0(%rbp)
  403aec:	ff 
  403aed:	48 8b 85 28 ff ff ff 	mov    -0xd8(%rbp),%rax
  403af4:	48 89 c7             	mov    %rax,%rdi
  403af7:	e8 0e eb ff ff       	callq  40260a <_ZNK5hayai10TestResult20RunsPerSecondMinimumEv>
  403afc:	f2 0f 11 85 18 ff ff 	movsd  %xmm0,-0xe8(%rbp)
  403b03:	ff 
  403b04:	48 8b 85 28 ff ff ff 	mov    -0xd8(%rbp),%rax
  403b0b:	48 89 c7             	mov    %rax,%rdi
  403b0e:	e8 ad ea ff ff       	callq  4025c0 <_ZNK5hayai10TestResult20RunsPerSecondAverageEv>
  403b13:	f2 0f 10 ad 18 ff ff 	movsd  -0xe8(%rbp),%xmm5
  403b1a:	ff 
  403b1b:	66 0f 2e e8          	ucomisd %xmm0,%xmm5
  403b1f:	76 07                	jbe    403b28 <_ZN5hayai16ConsoleOutputter7EndTestERKSsS2_S2_RKNS_10TestResultE+0xc76>
  403b21:	bb c4 78 40 00       	mov    $0x4078c4,%ebx
  403b26:	eb 05                	jmp    403b2d <_ZN5hayai16ConsoleOutputter7EndTestERKSsS2_S2_RKNS_10TestResultE+0xc7b>
  403b28:	bb a0 77 40 00       	mov    $0x4077a0,%ebx
  403b2d:	48 8b 85 28 ff ff ff 	mov    -0xd8(%rbp),%rax
  403b34:	48 89 c7             	mov    %rax,%rdi
  403b37:	e8 ce ea ff ff       	callq  40260a <_ZNK5hayai10TestResult20RunsPerSecondMinimumEv>
  403b3c:	f2 0f 11 85 18 ff ff 	movsd  %xmm0,-0xe8(%rbp)
  403b43:	ff 
  403b44:	48 8b 85 28 ff ff ff 	mov    -0xd8(%rbp),%rax
  403b4b:	48 89 c7             	mov    %rax,%rdi
  403b4e:	e8 6d ea ff ff       	callq  4025c0 <_ZNK5hayai10TestResult20RunsPerSecondAverageEv>
  403b53:	f2 0f 10 b5 18 ff ff 	movsd  -0xe8(%rbp),%xmm6
  403b5a:	ff 
  403b5b:	66 0f 2e f0          	ucomisd %xmm0,%xmm6
  403b5f:	76 08                	jbe    403b69 <_ZN5hayai16ConsoleOutputter7EndTestERKSsS2_S2_RKNS_10TestResultE+0xcb7>
  403b61:	41 bc c4 78 40 00    	mov    $0x4078c4,%r12d
  403b67:	eb 06                	jmp    403b6f <_ZN5hayai16ConsoleOutputter7EndTestERKSsS2_S2_RKNS_10TestResultE+0xcbd>
  403b69:	41 bc a0 77 40 00    	mov    $0x4077a0,%r12d
  403b6f:	48 8b 85 28 ff ff ff 	mov    -0xd8(%rbp),%rax
  403b76:	48 89 c7             	mov    %rax,%rdi
  403b79:	e8 8c ea ff ff       	callq  40260a <_ZNK5hayai10TestResult20RunsPerSecondMinimumEv>
  403b7e:	f2 0f 11 85 18 ff ff 	movsd  %xmm0,-0xe8(%rbp)
  403b85:	ff 
  403b86:	48 8b 85 28 ff ff ff 	mov    -0xd8(%rbp),%rax
  403b8d:	48 89 c7             	mov    %rax,%rdi
  403b90:	e8 2b ea ff ff       	callq  4025c0 <_ZNK5hayai10TestResult20RunsPerSecondAverageEv>
  403b95:	66 0f 2e 85 18 ff ff 	ucomisd -0xe8(%rbp),%xmm0
  403b9c:	ff 
  403b9d:	76 07                	jbe    403ba6 <_ZN5hayai16ConsoleOutputter7EndTestERKSsS2_S2_RKNS_10TestResultE+0xcf4>
  403b9f:	b8 05 00 00 00       	mov    $0x5,%eax
  403ba4:	eb 05                	jmp    403bab <_ZN5hayai16ConsoleOutputter7EndTestERKSsS2_S2_RKNS_10TestResultE+0xcf9>
  403ba6:	b8 03 00 00 00       	mov    $0x3,%eax
  403bab:	89 45 84             	mov    %eax,-0x7c(%rbp)
  403bae:	48 8b 85 28 ff ff ff 	mov    -0xd8(%rbp),%rax
  403bb5:	48 89 c7             	mov    %rax,%rdi
  403bb8:	e8 4d ea ff ff       	callq  40260a <_ZNK5hayai10TestResult20RunsPerSecondMinimumEv>
  403bbd:	f2 0f 11 85 18 ff ff 	movsd  %xmm0,-0xe8(%rbp)
  403bc4:	ff 
  403bc5:	bf 22 00 00 00       	mov    $0x22,%edi
  403bca:	e8 7d e8 ff ff       	callq  40244c <_ZSt4setwi>
  403bcf:	89 c6                	mov    %eax,%esi
  403bd1:	bf e0 b1 60 00       	mov    $0x60b1e0,%edi
  403bd6:	e8 d5 d8 ff ff       	callq  4014b0 <_ZStlsIcSt11char_traitsIcEERSt13basic_ostreamIT_T0_ES6_St5_Setw@plt>
  403bdb:	be 1e 79 40 00       	mov    $0x40791e,%esi
  403be0:	48 89 c7             	mov    %rax,%rdi
  403be3:	e8 68 d7 ff ff       	callq  401350 <_ZStlsISt11char_traitsIcEERSt13basic_ostreamIcT_ES5_PKc@plt>
  403be8:	f2 0f 10 85 18 ff ff 	movsd  -0xe8(%rbp),%xmm0
  403bef:	ff 
  403bf0:	48 89 c7             	mov    %rax,%rdi
  403bf3:	e8 58 d6 ff ff       	callq  401250 <_ZNSolsEd@plt>
  403bf8:	be 85 78 40 00       	mov    $0x407885,%esi
  403bfd:	48 89 c7             	mov    %rax,%rdi
  403c00:	e8 4b d7 ff ff       	callq  401350 <_ZStlsISt11char_traitsIcEERSt13basic_ostreamIcT_ES5_PKc@plt>
  403c05:	be 17 79 40 00       	mov    $0x407917,%esi
  403c0a:	48 89 c7             	mov    %rax,%rdi
  403c0d:	e8 3e d7 ff ff       	callq  401350 <_ZStlsISt11char_traitsIcEERSt13basic_ostreamIcT_ES5_PKc@plt>
  403c12:	be 87 78 40 00       	mov    $0x407887,%esi
  403c17:	48 89 c7             	mov    %rax,%rdi
  403c1a:	e8 31 d7 ff ff       	callq  401350 <_ZStlsISt11char_traitsIcEERSt13basic_ostreamIcT_ES5_PKc@plt>
  403c1f:	48 89 c2             	mov    %rax,%rdx
  403c22:	48 8d 45 84          	lea    -0x7c(%rbp),%rax
  403c26:	48 89 c6             	mov    %rax,%rsi
  403c29:	48 89 d7             	mov    %rdx,%rdi
  403c2c:	e8 0d ed ff ff       	callq  40293e <_ZN5hayailsERSoRKNS_7Console9TextColorE>
  403c31:	4c 89 e6             	mov    %r12,%rsi
  403c34:	48 89 c7             	mov    %rax,%rdi
  403c37:	e8 14 d7 ff ff       	callq  401350 <_ZStlsISt11char_traitsIcEERSt13basic_ostreamIcT_ES5_PKc@plt>
  403c3c:	48 89 c2             	mov    %rax,%rdx
  403c3f:	48 8b 45 d0          	mov    -0x30(%rbp),%rax
  403c43:	48 89 85 18 ff ff ff 	mov    %rax,-0xe8(%rbp)
  403c4a:	f2 0f 10 85 18 ff ff 	movsd  -0xe8(%rbp),%xmm0
  403c51:	ff 
  403c52:	48 89 d7             	mov    %rdx,%rdi
  403c55:	e8 f6 d5 ff ff       	callq  401250 <_ZNSolsEd@plt>
  403c5a:	be 85 78 40 00       	mov    $0x407885,%esi
  403c5f:	48 89 c7             	mov    %rax,%rdi
  403c62:	e8 e9 d6 ff ff       	callq  401350 <_ZStlsISt11char_traitsIcEERSt13basic_ostreamIcT_ES5_PKc@plt>
  403c67:	be 17 79 40 00       	mov    $0x407917,%esi
  403c6c:	48 89 c7             	mov    %rax,%rdi
  403c6f:	e8 dc d6 ff ff       	callq  401350 <_ZStlsISt11char_traitsIcEERSt13basic_ostreamIcT_ES5_PKc@plt>
  403c74:	be d3 78 40 00       	mov    $0x4078d3,%esi
  403c79:	48 89 c7             	mov    %rax,%rdi
  403c7c:	e8 cf d6 ff ff       	callq  401350 <_ZStlsISt11char_traitsIcEERSt13basic_ostreamIcT_ES5_PKc@plt>
  403c81:	48 89 de             	mov    %rbx,%rsi
  403c84:	48 89 c7             	mov    %rax,%rdi
  403c87:	e8 c4 d6 ff ff       	callq  401350 <_ZStlsISt11char_traitsIcEERSt13basic_ostreamIcT_ES5_PKc@plt>
  403c8c:	f2 0f 10 85 20 ff ff 	movsd  -0xe0(%rbp),%xmm0
  403c93:	ff 
  403c94:	48 89 c7             	mov    %rax,%rdi
  403c97:	e8 b4 d5 ff ff       	callq  401250 <_ZNSolsEd@plt>
  403c9c:	be d7 78 40 00       	mov    $0x4078d7,%esi
  403ca1:	48 89 c7             	mov    %rax,%rdi
  403ca4:	e8 a7 d6 ff ff       	callq  401350 <_ZStlsISt11char_traitsIcEERSt13basic_ostreamIcT_ES5_PKc@plt>
  403ca9:	48 89 c2             	mov    %rax,%rdx
  403cac:	48 8d 45 80          	lea    -0x80(%rbp),%rax
  403cb0:	48 89 c6             	mov    %rax,%rsi
  403cb3:	48 89 d7             	mov    %rdx,%rdi
  403cb6:	e8 83 ec ff ff       	callq  40293e <_ZN5hayailsERSoRKNS_7Console9TextColorE>
  403cbb:	be da 78 40 00       	mov    $0x4078da,%esi
  403cc0:	48 89 c7             	mov    %rax,%rdi
  403cc3:	e8 88 d6 ff ff       	callq  401350 <_ZStlsISt11char_traitsIcEERSt13basic_ostreamIcT_ES5_PKc@plt>
  403cc8:	be 40 14 40 00       	mov    $0x401440,%esi
  403ccd:	48 89 c7             	mov    %rax,%rdi
  403cd0:	e8 3b d7 ff ff       	callq  401410 <_ZNSolsEPFRSoS_E@plt>
  403cd5:	48 8b 85 28 ff ff ff 	mov    -0xd8(%rbp),%rax
  403cdc:	48 89 c7             	mov    %rax,%rdi
  403cdf:	e8 46 e9 ff ff       	callq  40262a <_ZNK5hayai10TestResult20IterationTimeAverageEv>
  403ce4:	66 0f 28 c8          	movapd %xmm0,%xmm1
  403ce8:	f2 0f 10 05 a0 3c 00 	movsd  0x3ca0(%rip),%xmm0        # 407990 <_ZZL18__gthread_active_pvE20__gthread_active_ptr+0x18>
  403cef:	00 
  403cf0:	f2 0f 5e c8          	divsd  %xmm0,%xmm1
  403cf4:	f2 0f 11 8d 20 ff ff 	movsd  %xmm1,-0xe0(%rbp)
  403cfb:	ff 
  403cfc:	bf 03 00 00 00       	mov    $0x3,%edi
  403d01:	e8 3a e7 ff ff       	callq  402440 <_ZSt12setprecisioni>
  403d06:	89 c3                	mov    %eax,%ebx
  403d08:	c7 45 88 00 00 00 00 	movl   $0x0,-0x78(%rbp)
  403d0f:	c7 45 8c 02 00 00 00 	movl   $0x2,-0x74(%rbp)
  403d16:	48 8d 45 8c          	lea    -0x74(%rbp),%rax
  403d1a:	48 89 c6             	mov    %rax,%rsi
  403d1d:	bf e0 b1 60 00       	mov    $0x60b1e0,%edi
  403d22:	e8 17 ec ff ff       	callq  40293e <_ZN5hayailsERSoRKNS_7Console9TextColorE>
  403d27:	be 32 79 40 00       	mov    $0x407932,%esi
  403d2c:	48 89 c7             	mov    %rax,%rdi
  403d2f:	e8 1c d6 ff ff       	callq  401350 <_ZStlsISt11char_traitsIcEERSt13basic_ostreamIcT_ES5_PKc@plt>
  403d34:	48 89 c2             	mov    %rax,%rdx
  403d37:	48 8d 45 88          	lea    -0x78(%rbp),%rax
  403d3b:	48 89 c6             	mov    %rax,%rsi
  403d3e:	48 89 d7             	mov    %rdx,%rdi
  403d41:	e8 f8 eb ff ff       	callq  40293e <_ZN5hayailsERSoRKNS_7Console9TextColorE>
  403d46:	89 de                	mov    %ebx,%esi
  403d48:	48 89 c7             	mov    %rax,%rdi
  403d4b:	e8 20 d5 ff ff       	callq  401270 <_ZStlsIcSt11char_traitsIcEERSt13basic_ostreamIT_T0_ES6_St13_Setprecision@plt>
  403d50:	be aa 78 40 00       	mov    $0x4078aa,%esi
  403d55:	48 89 c7             	mov    %rax,%rdi
  403d58:	e8 f3 d5 ff ff       	callq  401350 <_ZStlsISt11char_traitsIcEERSt13basic_ostreamIcT_ES5_PKc@plt>
  403d5d:	f2 0f 10 85 20 ff ff 	movsd  -0xe0(%rbp),%xmm0
  403d64:	ff 
  403d65:	48 89 c7             	mov    %rax,%rdi
  403d68:	e8 e3 d4 ff ff       	callq  401250 <_ZNSolsEd@plt>
  403d6d:	be c0 78 40 00       	mov    $0x4078c0,%esi
  403d72:	48 89 c7             	mov    %rax,%rdi
  403d75:	e8 d6 d5 ff ff       	callq  401350 <_ZStlsISt11char_traitsIcEERSt13basic_ostreamIcT_ES5_PKc@plt>
  403d7a:	be 40 14 40 00       	mov    $0x401440,%esi
  403d7f:	48 89 c7             	mov    %rax,%rdi
  403d82:	e8 89 d6 ff ff       	callq  401410 <_ZNSolsEPFRSoS_E@plt>
  403d87:	48 8b 85 28 ff ff ff 	mov    -0xd8(%rbp),%rax
  403d8e:	48 89 c7             	mov    %rax,%rdi
  403d91:	e8 ec e8 ff ff       	callq  402682 <_ZNK5hayai10TestResult20IterationTimeMinimumEv>
  403d96:	66 0f 28 c8          	movapd %xmm0,%xmm1
  403d9a:	f2 0f 10 05 ee 3b 00 	movsd  0x3bee(%rip),%xmm0        # 407990 <_ZZL18__gthread_active_pvE20__gthread_active_ptr+0x18>
  403da1:	00 
  403da2:	f2 0f 5e c8          	divsd  %xmm0,%xmm1
  403da6:	f2 0f 11 8d 20 ff ff 	movsd  %xmm1,-0xe0(%rbp)
  403dad:	ff 
  403dae:	48 8b 85 28 ff ff ff 	mov    -0xd8(%rbp),%rax
  403db5:	48 89 c7             	mov    %rax,%rdi
  403db8:	e8 6d e8 ff ff       	callq  40262a <_ZNK5hayai10TestResult20IterationTimeAverageEv>
  403dbd:	66 0f 28 c8          	movapd %xmm0,%xmm1
  403dc1:	f2 0f 10 05 c7 3b 00 	movsd  0x3bc7(%rip),%xmm0        # 407990 <_ZZL18__gthread_active_pvE20__gthread_active_ptr+0x18>
  403dc8:	00 
  403dc9:	66 0f 28 d1          	movapd %xmm1,%xmm2
  403dcd:	f2 0f 5e d0          	divsd  %xmm0,%xmm2
  403dd1:	66 0f 28 c2          	movapd %xmm2,%xmm0
  403dd5:	f2 0f 10 8d 20 ff ff 	movsd  -0xe0(%rbp),%xmm1
  403ddc:	ff 
  403ddd:	f2 0f 5c c8          	subsd  %xmm0,%xmm1
  403de1:	66 48 0f 7e c8       	movq   %xmm1,%rax
  403de6:	48 89 45 c8          	mov    %rax,-0x38(%rbp)
  403dea:	c7 45 90 00 00 00 00 	movl   $0x0,-0x70(%rbp)
  403df1:	f2 0f 10 4d c8       	movsd  -0x38(%rbp),%xmm1
  403df6:	f2 0f 10 05 9a 3b 00 	movsd  0x3b9a(%rip),%xmm0        # 407998 <_ZZL18__gthread_active_pvE20__gthread_active_ptr+0x20>
  403dfd:	00 
  403dfe:	f2 0f 59 c8          	mulsd  %xmm0,%xmm1
  403e02:	f2 0f 11 8d 20 ff ff 	movsd  %xmm1,-0xe0(%rbp)
  403e09:	ff 
  403e0a:	48 8b 85 28 ff ff ff 	mov    -0xd8(%rbp),%rax
  403e11:	48 89 c7             	mov    %rax,%rdi
  403e14:	e8 11 e8 ff ff       	callq  40262a <_ZNK5hayai10TestResult20IterationTimeAverageEv>
  403e19:	66 0f 28 c8          	movapd %xmm0,%xmm1
  403e1d:	f2 0f 10 05 6b 3b 00 	movsd  0x3b6b(%rip),%xmm0        # 407990 <_ZZL18__gthread_active_pvE20__gthread_active_ptr+0x18>
  403e24:	00 
  403e25:	66 0f 28 d9          	movapd %xmm1,%xmm3
  403e29:	f2 0f 5e d8          	divsd  %xmm0,%xmm3
  403e2d:	66 0f 28 c3          	movapd %xmm3,%xmm0
  403e31:	f2 0f 10 8d 20 ff ff 	movsd  -0xe0(%rbp),%xmm1
  403e38:	ff 
  403e39:	f2 0f 5e c8          	divsd  %xmm0,%xmm1
  403e3d:	f2 0f 11 8d 20 ff ff 	movsd  %xmm1,-0xe0(%rbp)
  403e44:	ff 
  403e45:	48 8b 85 28 ff ff ff 	mov    -0xd8(%rbp),%rax
  403e4c:	48 89 c7             	mov    %rax,%rdi
  403e4f:	e8 2e e8 ff ff       	callq  402682 <_ZNK5hayai10TestResult20IterationTimeMinimumEv>
  403e54:	66 0f 28 c8          	movapd %xmm0,%xmm1
  403e58:	f2 0f 10 05 30 3b 00 	movsd  0x3b30(%rip),%xmm0        # 407990 <_ZZL18__gthread_active_pvE20__gthread_active_ptr+0x18>
  403e5f:	00 
  403e60:	f2 0f 5e c8          	divsd  %xmm0,%xmm1
  403e64:	f2 0f 11 8d 18 ff ff 	movsd  %xmm1,-0xe8(%rbp)
  403e6b:	ff 
  403e6c:	48 8b 85 28 ff ff ff 	mov    -0xd8(%rbp),%rax
  403e73:	48 89 c7             	mov    %rax,%rdi
  403e76:	e8 af e7 ff ff       	callq  40262a <_ZNK5hayai10TestResult20IterationTimeAverageEv>
  403e7b:	66 0f 28 c8          	movapd %xmm0,%xmm1
  403e7f:	f2 0f 10 05 09 3b 00 	movsd  0x3b09(%rip),%xmm0        # 407990 <_ZZL18__gthread_active_pvE20__gthread_active_ptr+0x18>
  403e86:	00 
  403e87:	66 0f 28 e1          	movapd %xmm1,%xmm4
  403e8b:	f2 0f 5e e0          	divsd  %xmm0,%xmm4
  403e8f:	66 0f 28 c4          	movapd %xmm4,%xmm0
  403e93:	f2 0f 10 8d 18 ff ff 	movsd  -0xe8(%rbp),%xmm1
  403e9a:	ff 
  403e9b:	66 0f 2e c8          	ucomisd %xmm0,%xmm1
  403e9f:	76 07                	jbe    403ea8 <_ZN5hayai16ConsoleOutputter7EndTestERKSsS2_S2_RKNS_10TestResultE+0xff6>
  403ea1:	bb c4 78 40 00       	mov    $0x4078c4,%ebx
  403ea6:	eb 05                	jmp    403ead <_ZN5hayai16ConsoleOutputter7EndTestERKSsS2_S2_RKNS_10TestResultE+0xffb>
  403ea8:	bb a0 77 40 00       	mov    $0x4077a0,%ebx
  403ead:	48 8b 85 28 ff ff ff 	mov    -0xd8(%rbp),%rax
  403eb4:	48 89 c7             	mov    %rax,%rdi
  403eb7:	e8 c6 e7 ff ff       	callq  402682 <_ZNK5hayai10TestResult20IterationTimeMinimumEv>
  403ebc:	66 0f 28 c8          	movapd %xmm0,%xmm1
  403ec0:	f2 0f 10 05 c8 3a 00 	movsd  0x3ac8(%rip),%xmm0        # 407990 <_ZZL18__gthread_active_pvE20__gthread_active_ptr+0x18>
  403ec7:	00 
  403ec8:	f2 0f 5e c8          	divsd  %xmm0,%xmm1
  403ecc:	f2 0f 11 8d 18 ff ff 	movsd  %xmm1,-0xe8(%rbp)
  403ed3:	ff 
  403ed4:	48 8b 85 28 ff ff ff 	mov    -0xd8(%rbp),%rax
  403edb:	48 89 c7             	mov    %rax,%rdi
  403ede:	e8 47 e7 ff ff       	callq  40262a <_ZNK5hayai10TestResult20IterationTimeAverageEv>
  403ee3:	66 0f 28 c8          	movapd %xmm0,%xmm1
  403ee7:	f2 0f 10 05 a1 3a 00 	movsd  0x3aa1(%rip),%xmm0        # 407990 <_ZZL18__gthread_active_pvE20__gthread_active_ptr+0x18>
  403eee:	00 
  403eef:	66 0f 28 e9          	movapd %xmm1,%xmm5
  403ef3:	f2 0f 5e e8          	divsd  %xmm0,%xmm5
  403ef7:	66 0f 28 c5          	movapd %xmm5,%xmm0
  403efb:	f2 0f 10 8d 18 ff ff 	movsd  -0xe8(%rbp),%xmm1
  403f02:	ff 
  403f03:	66 0f 2e c8          	ucomisd %xmm0,%xmm1
  403f07:	76 08                	jbe    403f11 <_ZN5hayai16ConsoleOutputter7EndTestERKSsS2_S2_RKNS_10TestResultE+0x105f>
  403f09:	41 bc c4 78 40 00    	mov    $0x4078c4,%r12d
  403f0f:	eb 06                	jmp    403f17 <_ZN5hayai16ConsoleOutputter7EndTestERKSsS2_S2_RKNS_10TestResultE+0x1065>
  403f11:	41 bc a0 77 40 00    	mov    $0x4077a0,%r12d
  403f17:	48 8b 85 28 ff ff ff 	mov    -0xd8(%rbp),%rax
  403f1e:	48 89 c7             	mov    %rax,%rdi
  403f21:	e8 5c e7 ff ff       	callq  402682 <_ZNK5hayai10TestResult20IterationTimeMinimumEv>
  403f26:	66 0f 28 c8          	movapd %xmm0,%xmm1
  403f2a:	f2 0f 10 05 5e 3a 00 	movsd  0x3a5e(%rip),%xmm0        # 407990 <_ZZL18__gthread_active_pvE20__gthread_active_ptr+0x18>
  403f31:	00 
  403f32:	f2 0f 5e c8          	divsd  %xmm0,%xmm1
  403f36:	f2 0f 11 8d 18 ff ff 	movsd  %xmm1,-0xe8(%rbp)
  403f3d:	ff 
  403f3e:	48 8b 85 28 ff ff ff 	mov    -0xd8(%rbp),%rax
  403f45:	48 89 c7             	mov    %rax,%rdi
  403f48:	e8 dd e6 ff ff       	callq  40262a <_ZNK5hayai10TestResult20IterationTimeAverageEv>
  403f4d:	66 0f 28 c8          	movapd %xmm0,%xmm1
  403f51:	f2 0f 10 05 37 3a 00 	movsd  0x3a37(%rip),%xmm0        # 407990 <_ZZL18__gthread_active_pvE20__gthread_active_ptr+0x18>
  403f58:	00 
  403f59:	66 0f 28 f1          	movapd %xmm1,%xmm6
  403f5d:	f2 0f 5e f0          	divsd  %xmm0,%xmm6
  403f61:	66 0f 28 c6          	movapd %xmm6,%xmm0
  403f65:	f2 0f 10 8d 18 ff ff 	movsd  -0xe8(%rbp),%xmm1
  403f6c:	ff 
  403f6d:	66 0f 2e c8          	ucomisd %xmm0,%xmm1
  403f71:	76 07                	jbe    403f7a <_ZN5hayai16ConsoleOutputter7EndTestERKSsS2_S2_RKNS_10TestResultE+0x10c8>
  403f73:	b8 05 00 00 00       	mov    $0x5,%eax
  403f78:	eb 05                	jmp    403f7f <_ZN5hayai16ConsoleOutputter7EndTestERKSsS2_S2_RKNS_10TestResultE+0x10cd>
  403f7a:	b8 03 00 00 00       	mov    $0x3,%eax
  403f7f:	89 45 94             	mov    %eax,-0x6c(%rbp)
  403f82:	48 8b 85 28 ff ff ff 	mov    -0xd8(%rbp),%rax
  403f89:	48 89 c7             	mov    %rax,%rdi
  403f8c:	e8 f1 e6 ff ff       	callq  402682 <_ZNK5hayai10TestResult20IterationTimeMinimumEv>
  403f91:	66 0f 28 c8          	movapd %xmm0,%xmm1
  403f95:	f2 0f 10 05 f3 39 00 	movsd  0x39f3(%rip),%xmm0        # 407990 <_ZZL18__gthread_active_pvE20__gthread_active_ptr+0x18>
  403f9c:	00 
  403f9d:	f2 0f 5e c8          	divsd  %xmm0,%xmm1
  403fa1:	f2 0f 11 8d 18 ff ff 	movsd  %xmm1,-0xe8(%rbp)
  403fa8:	ff 
  403fa9:	bf 22 00 00 00       	mov    $0x22,%edi
  403fae:	e8 99 e4 ff ff       	callq  40244c <_ZSt4setwi>
  403fb3:	89 c6                	mov    %eax,%esi
  403fb5:	bf e0 b1 60 00       	mov    $0x60b1e0,%edi
  403fba:	e8 f1 d4 ff ff       	callq  4014b0 <_ZStlsIcSt11char_traitsIcEERSt13basic_ostreamIT_T0_ES6_St5_Setw@plt>
  403fbf:	be c6 78 40 00       	mov    $0x4078c6,%esi
  403fc4:	48 89 c7             	mov    %rax,%rdi
  403fc7:	e8 84 d3 ff ff       	callq  401350 <_ZStlsISt11char_traitsIcEERSt13basic_ostreamIcT_ES5_PKc@plt>
  403fcc:	f2 0f 10 85 18 ff ff 	movsd  -0xe8(%rbp),%xmm0
  403fd3:	ff 
  403fd4:	48 89 c7             	mov    %rax,%rdi
  403fd7:	e8 74 d2 ff ff       	callq  401250 <_ZNSolsEd@plt>
  403fdc:	be 85 78 40 00       	mov    $0x407885,%esi
  403fe1:	48 89 c7             	mov    %rax,%rdi
  403fe4:	e8 67 d3 ff ff       	callq  401350 <_ZStlsISt11char_traitsIcEERSt13basic_ostreamIcT_ES5_PKc@plt>
  403fe9:	be d0 78 40 00       	mov    $0x4078d0,%esi
  403fee:	48 89 c7             	mov    %rax,%rdi
  403ff1:	e8 5a d3 ff ff       	callq  401350 <_ZStlsISt11char_traitsIcEERSt13basic_ostreamIcT_ES5_PKc@plt>
  403ff6:	be 87 78 40 00       	mov    $0x407887,%esi
  403ffb:	48 89 c7             	mov    %rax,%rdi
  403ffe:	e8 4d d3 ff ff       	callq  401350 <_ZStlsISt11char_traitsIcEERSt13basic_ostreamIcT_ES5_PKc@plt>
  404003:	48 89 c2             	mov    %rax,%rdx
  404006:	48 8d 45 94          	lea    -0x6c(%rbp),%rax
  40400a:	48 89 c6             	mov    %rax,%rsi
  40400d:	48 89 d7             	mov    %rdx,%rdi
  404010:	e8 29 e9 ff ff       	callq  40293e <_ZN5hayailsERSoRKNS_7Console9TextColorE>
  404015:	4c 89 e6             	mov    %r12,%rsi
  404018:	48 89 c7             	mov    %rax,%rdi
  40401b:	e8 30 d3 ff ff       	callq  401350 <_ZStlsISt11char_traitsIcEERSt13basic_ostreamIcT_ES5_PKc@plt>
  404020:	48 89 c2             	mov    %rax,%rdx
  404023:	48 8b 45 c8          	mov    -0x38(%rbp),%rax
  404027:	48 89 85 18 ff ff ff 	mov    %rax,-0xe8(%rbp)
  40402e:	f2 0f 10 85 18 ff ff 	movsd  -0xe8(%rbp),%xmm0
  404035:	ff 
  404036:	48 89 d7             	mov    %rdx,%rdi
  404039:	e8 12 d2 ff ff       	callq  401250 <_ZNSolsEd@plt>
  40403e:	be 85 78 40 00       	mov    $0x407885,%esi
  404043:	48 89 c7             	mov    %rax,%rdi
  404046:	e8 05 d3 ff ff       	callq  401350 <_ZStlsISt11char_traitsIcEERSt13basic_ostreamIcT_ES5_PKc@plt>
  40404b:	be d0 78 40 00       	mov    $0x4078d0,%esi
  404050:	48 89 c7             	mov    %rax,%rdi
  404053:	e8 f8 d2 ff ff       	callq  401350 <_ZStlsISt11char_traitsIcEERSt13basic_ostreamIcT_ES5_PKc@plt>
  404058:	be d3 78 40 00       	mov    $0x4078d3,%esi
  40405d:	48 89 c7             	mov    %rax,%rdi
  404060:	e8 eb d2 ff ff       	callq  401350 <_ZStlsISt11char_traitsIcEERSt13basic_ostreamIcT_ES5_PKc@plt>
  404065:	48 89 de             	mov    %rbx,%rsi
  404068:	48 89 c7             	mov    %rax,%rdi
  40406b:	e8 e0 d2 ff ff       	callq  401350 <_ZStlsISt11char_traitsIcEERSt13basic_ostreamIcT_ES5_PKc@plt>
  404070:	f2 0f 10 85 20 ff ff 	movsd  -0xe0(%rbp),%xmm0
  404077:	ff 
  404078:	48 89 c7             	mov    %rax,%rdi
  40407b:	e8 d0 d1 ff ff       	callq  401250 <_ZNSolsEd@plt>
  404080:	be d7 78 40 00       	mov    $0x4078d7,%esi
  404085:	48 89 c7             	mov    %rax,%rdi
  404088:	e8 c3 d2 ff ff       	callq  401350 <_ZStlsISt11char_traitsIcEERSt13basic_ostreamIcT_ES5_PKc@plt>
  40408d:	48 89 c2             	mov    %rax,%rdx
  404090:	48 8d 45 90          	lea    -0x70(%rbp),%rax
  404094:	48 89 c6             	mov    %rax,%rsi
  404097:	48 89 d7             	mov    %rdx,%rdi
  40409a:	e8 9f e8 ff ff       	callq  40293e <_ZN5hayailsERSoRKNS_7Console9TextColorE>
  40409f:	be da 78 40 00       	mov    $0x4078da,%esi
  4040a4:	48 89 c7             	mov    %rax,%rdi
  4040a7:	e8 a4 d2 ff ff       	callq  401350 <_ZStlsISt11char_traitsIcEERSt13basic_ostreamIcT_ES5_PKc@plt>
  4040ac:	be 40 14 40 00       	mov    $0x401440,%esi
  4040b1:	48 89 c7             	mov    %rax,%rdi
  4040b4:	e8 57 d3 ff ff       	callq  401410 <_ZNSolsEPFRSoS_E@plt>
  4040b9:	48 8b 85 28 ff ff ff 	mov    -0xd8(%rbp),%rax
  4040c0:	48 89 c7             	mov    %rax,%rdi
  4040c3:	e8 06 e6 ff ff       	callq  4026ce <_ZNK5hayai10TestResult20IterationTimeMaximumEv>
  4040c8:	66 0f 28 c8          	movapd %xmm0,%xmm1
  4040cc:	f2 0f 10 05 bc 38 00 	movsd  0x38bc(%rip),%xmm0        # 407990 <_ZZL18__gthread_active_pvE20__gthread_active_ptr+0x18>
  4040d3:	00 
  4040d4:	f2 0f 5e c8          	divsd  %xmm0,%xmm1
  4040d8:	f2 0f 11 8d 20 ff ff 	movsd  %xmm1,-0xe0(%rbp)
  4040df:	ff 
  4040e0:	48 8b 85 28 ff ff ff 	mov    -0xd8(%rbp),%rax
  4040e7:	48 89 c7             	mov    %rax,%rdi
  4040ea:	e8 3b e5 ff ff       	callq  40262a <_ZNK5hayai10TestResult20IterationTimeAverageEv>
  4040ef:	66 0f 28 c8          	movapd %xmm0,%xmm1
  4040f3:	f2 0f 10 05 95 38 00 	movsd  0x3895(%rip),%xmm0        # 407990 <_ZZL18__gthread_active_pvE20__gthread_active_ptr+0x18>
  4040fa:	00 
  4040fb:	66 0f 28 f9          	movapd %xmm1,%xmm7
  4040ff:	f2 0f 5e f8          	divsd  %xmm0,%xmm7
  404103:	66 0f 28 c7          	movapd %xmm7,%xmm0
  404107:	f2 0f 10 8d 20 ff ff 	movsd  -0xe0(%rbp),%xmm1
  40410e:	ff 
  40410f:	f2 0f 5c c8          	subsd  %xmm0,%xmm1
  404113:	66 48 0f 7e c8       	movq   %xmm1,%rax
  404118:	48 89 45 c0          	mov    %rax,-0x40(%rbp)
  40411c:	c7 45 98 00 00 00 00 	movl   $0x0,-0x68(%rbp)
  404123:	f2 0f 10 4d c0       	movsd  -0x40(%rbp),%xmm1
  404128:	f2 0f 10 05 68 38 00 	movsd  0x3868(%rip),%xmm0        # 407998 <_ZZL18__gthread_active_pvE20__gthread_active_ptr+0x20>
  40412f:	00 
  404130:	f2 0f 59 c8          	mulsd  %xmm0,%xmm1
  404134:	f2 0f 11 8d 20 ff ff 	movsd  %xmm1,-0xe0(%rbp)
  40413b:	ff 
  40413c:	48 8b 85 28 ff ff ff 	mov    -0xd8(%rbp),%rax
  404143:	48 89 c7             	mov    %rax,%rdi
  404146:	e8 df e4 ff ff       	callq  40262a <_ZNK5hayai10TestResult20IterationTimeAverageEv>
  40414b:	66 0f 28 c8          	movapd %xmm0,%xmm1
  40414f:	f2 0f 10 05 39 38 00 	movsd  0x3839(%rip),%xmm0        # 407990 <_ZZL18__gthread_active_pvE20__gthread_active_ptr+0x18>
  404156:	00 
  404157:	66 0f 28 d1          	movapd %xmm1,%xmm2
  40415b:	f2 0f 5e d0          	divsd  %xmm0,%xmm2
  40415f:	66 0f 28 c2          	movapd %xmm2,%xmm0
  404163:	f2 0f 10 8d 20 ff ff 	movsd  -0xe0(%rbp),%xmm1
  40416a:	ff 
  40416b:	f2 0f 5e c8          	divsd  %xmm0,%xmm1
  40416f:	f2 0f 11 8d 20 ff ff 	movsd  %xmm1,-0xe0(%rbp)
  404176:	ff 
  404177:	48 8b 85 28 ff ff ff 	mov    -0xd8(%rbp),%rax
  40417e:	48 89 c7             	mov    %rax,%rdi
  404181:	e8 48 e5 ff ff       	callq  4026ce <_ZNK5hayai10TestResult20IterationTimeMaximumEv>
  404186:	66 0f 28 c8          	movapd %xmm0,%xmm1
  40418a:	f2 0f 10 05 fe 37 00 	movsd  0x37fe(%rip),%xmm0        # 407990 <_ZZL18__gthread_active_pvE20__gthread_active_ptr+0x18>
  404191:	00 
  404192:	f2 0f 5e c8          	divsd  %xmm0,%xmm1
  404196:	f2 0f 11 8d 18 ff ff 	movsd  %xmm1,-0xe8(%rbp)
  40419d:	ff 
  40419e:	48 8b 85 28 ff ff ff 	mov    -0xd8(%rbp),%rax
  4041a5:	48 89 c7             	mov    %rax,%rdi
  4041a8:	e8 7d e4 ff ff       	callq  40262a <_ZNK5hayai10TestResult20IterationTimeAverageEv>
  4041ad:	66 0f 28 c8          	movapd %xmm0,%xmm1
  4041b1:	f2 0f 10 05 d7 37 00 	movsd  0x37d7(%rip),%xmm0        # 407990 <_ZZL18__gthread_active_pvE20__gthread_active_ptr+0x18>
  4041b8:	00 
  4041b9:	66 0f 28 d9          	movapd %xmm1,%xmm3
  4041bd:	f2 0f 5e d8          	divsd  %xmm0,%xmm3
  4041c1:	66 0f 28 c3          	movapd %xmm3,%xmm0
  4041c5:	f2 0f 10 8d 18 ff ff 	movsd  -0xe8(%rbp),%xmm1
  4041cc:	ff 
  4041cd:	66 0f 2e c8          	ucomisd %xmm0,%xmm1
  4041d1:	76 07                	jbe    4041da <_ZN5hayai16ConsoleOutputter7EndTestERKSsS2_S2_RKNS_10TestResultE+0x1328>
  4041d3:	bb c4 78 40 00       	mov    $0x4078c4,%ebx
  4041d8:	eb 05                	jmp    4041df <_ZN5hayai16ConsoleOutputter7EndTestERKSsS2_S2_RKNS_10TestResultE+0x132d>
  4041da:	bb a0 77 40 00       	mov    $0x4077a0,%ebx
  4041df:	48 8b 85 28 ff ff ff 	mov    -0xd8(%rbp),%rax
  4041e6:	48 89 c7             	mov    %rax,%rdi
  4041e9:	e8 e0 e4 ff ff       	callq  4026ce <_ZNK5hayai10TestResult20IterationTimeMaximumEv>
  4041ee:	66 0f 28 c8          	movapd %xmm0,%xmm1
  4041f2:	f2 0f 10 05 96 37 00 	movsd  0x3796(%rip),%xmm0        # 407990 <_ZZL18__gthread_active_pvE20__gthread_active_ptr+0x18>
  4041f9:	00 
  4041fa:	f2 0f 5e c8          	divsd  %xmm0,%xmm1
  4041fe:	f2 0f 11 8d 18 ff ff 	movsd  %xmm1,-0xe8(%rbp)
  404205:	ff 
  404206:	48 8b 85 28 ff ff ff 	mov    -0xd8(%rbp),%rax
  40420d:	48 89 c7             	mov    %rax,%rdi
  404210:	e8 15 e4 ff ff       	callq  40262a <_ZNK5hayai10TestResult20IterationTimeAverageEv>
  404215:	66 0f 28 c8          	movapd %xmm0,%xmm1
  404219:	f2 0f 10 05 6f 37 00 	movsd  0x376f(%rip),%xmm0        # 407990 <_ZZL18__gthread_active_pvE20__gthread_active_ptr+0x18>
  404220:	00 
  404221:	66 0f 28 e1          	movapd %xmm1,%xmm4
  404225:	f2 0f 5e e0          	divsd  %xmm0,%xmm4
  404229:	66 0f 28 c4          	movapd %xmm4,%xmm0
  40422d:	f2 0f 10 8d 18 ff ff 	movsd  -0xe8(%rbp),%xmm1
  404234:	ff 
  404235:	66 0f 2e c8          	ucomisd %xmm0,%xmm1
  404239:	76 08                	jbe    404243 <_ZN5hayai16ConsoleOutputter7EndTestERKSsS2_S2_RKNS_10TestResultE+0x1391>
  40423b:	41 bc c4 78 40 00    	mov    $0x4078c4,%r12d
  404241:	eb 06                	jmp    404249 <_ZN5hayai16ConsoleOutputter7EndTestERKSsS2_S2_RKNS_10TestResultE+0x1397>
  404243:	41 bc a0 77 40 00    	mov    $0x4077a0,%r12d
  404249:	48 8b 85 28 ff ff ff 	mov    -0xd8(%rbp),%rax
  404250:	48 89 c7             	mov    %rax,%rdi
  404253:	e8 76 e4 ff ff       	callq  4026ce <_ZNK5hayai10TestResult20IterationTimeMaximumEv>
  404258:	66 0f 28 c8          	movapd %xmm0,%xmm1
  40425c:	f2 0f 10 05 2c 37 00 	movsd  0x372c(%rip),%xmm0        # 407990 <_ZZL18__gthread_active_pvE20__gthread_active_ptr+0x18>
  404263:	00 
  404264:	f2 0f 5e c8          	divsd  %xmm0,%xmm1
  404268:	f2 0f 11 8d 18 ff ff 	movsd  %xmm1,-0xe8(%rbp)
  40426f:	ff 
  404270:	48 8b 85 28 ff ff ff 	mov    -0xd8(%rbp),%rax
  404277:	48 89 c7             	mov    %rax,%rdi
  40427a:	e8 ab e3 ff ff       	callq  40262a <_ZNK5hayai10TestResult20IterationTimeAverageEv>
  40427f:	66 0f 28 c8          	movapd %xmm0,%xmm1
  404283:	f2 0f 10 05 05 37 00 	movsd  0x3705(%rip),%xmm0        # 407990 <_ZZL18__gthread_active_pvE20__gthread_active_ptr+0x18>
  40428a:	00 
  40428b:	66 0f 28 e9          	movapd %xmm1,%xmm5
  40428f:	f2 0f 5e e8          	divsd  %xmm0,%xmm5
  404293:	66 0f 28 c5          	movapd %xmm5,%xmm0
  404297:	f2 0f 10 8d 18 ff ff 	movsd  -0xe8(%rbp),%xmm1
  40429e:	ff 
  40429f:	66 0f 2e c8          	ucomisd %xmm0,%xmm1
  4042a3:	76 07                	jbe    4042ac <_ZN5hayai16ConsoleOutputter7EndTestERKSsS2_S2_RKNS_10TestResultE+0x13fa>
  4042a5:	b8 05 00 00 00       	mov    $0x5,%eax
  4042aa:	eb 05                	jmp    4042b1 <_ZN5hayai16ConsoleOutputter7EndTestERKSsS2_S2_RKNS_10TestResultE+0x13ff>
  4042ac:	b8 03 00 00 00       	mov    $0x3,%eax
  4042b1:	89 45 9c             	mov    %eax,-0x64(%rbp)
  4042b4:	48 8b 85 28 ff ff ff 	mov    -0xd8(%rbp),%rax
  4042bb:	48 89 c7             	mov    %rax,%rdi
  4042be:	e8 0b e4 ff ff       	callq  4026ce <_ZNK5hayai10TestResult20IterationTimeMaximumEv>
  4042c3:	66 0f 28 c8          	movapd %xmm0,%xmm1
  4042c7:	f2 0f 10 05 c1 36 00 	movsd  0x36c1(%rip),%xmm0        # 407990 <_ZZL18__gthread_active_pvE20__gthread_active_ptr+0x18>
  4042ce:	00 
  4042cf:	f2 0f 5e c8          	divsd  %xmm0,%xmm1
  4042d3:	f2 0f 11 8d 18 ff ff 	movsd  %xmm1,-0xe8(%rbp)
  4042da:	ff 
  4042db:	bf 22 00 00 00       	mov    $0x22,%edi
  4042e0:	e8 67 e1 ff ff       	callq  40244c <_ZSt4setwi>
  4042e5:	89 c6                	mov    %eax,%esi
  4042e7:	bf e0 b1 60 00       	mov    $0x60b1e0,%edi
  4042ec:	e8 bf d1 ff ff       	callq  4014b0 <_ZStlsIcSt11char_traitsIcEERSt13basic_ostreamIT_T0_ES6_St5_Setw@plt>
  4042f1:	be dc 78 40 00       	mov    $0x4078dc,%esi
  4042f6:	48 89 c7             	mov    %rax,%rdi
  4042f9:	e8 52 d0 ff ff       	callq  401350 <_ZStlsISt11char_traitsIcEERSt13basic_ostreamIcT_ES5_PKc@plt>
  4042fe:	f2 0f 10 85 18 ff ff 	movsd  -0xe8(%rbp),%xmm0
  404305:	ff 
  404306:	48 89 c7             	mov    %rax,%rdi
  404309:	e8 42 cf ff ff       	callq  401250 <_ZNSolsEd@plt>
  40430e:	be 85 78 40 00       	mov    $0x407885,%esi
  404313:	48 89 c7             	mov    %rax,%rdi
  404316:	e8 35 d0 ff ff       	callq  401350 <_ZStlsISt11char_traitsIcEERSt13basic_ostreamIcT_ES5_PKc@plt>
  40431b:	be d0 78 40 00       	mov    $0x4078d0,%esi
  404320:	48 89 c7             	mov    %rax,%rdi
  404323:	e8 28 d0 ff ff       	callq  401350 <_ZStlsISt11char_traitsIcEERSt13basic_ostreamIcT_ES5_PKc@plt>
  404328:	be 87 78 40 00       	mov    $0x407887,%esi
  40432d:	48 89 c7             	mov    %rax,%rdi
  404330:	e8 1b d0 ff ff       	callq  401350 <_ZStlsISt11char_traitsIcEERSt13basic_ostreamIcT_ES5_PKc@plt>
  404335:	48 89 c2             	mov    %rax,%rdx
  404338:	48 8d 45 9c          	lea    -0x64(%rbp),%rax
  40433c:	48 89 c6             	mov    %rax,%rsi
  40433f:	48 89 d7             	mov    %rdx,%rdi
  404342:	e8 f7 e5 ff ff       	callq  40293e <_ZN5hayailsERSoRKNS_7Console9TextColorE>
  404347:	4c 89 e6             	mov    %r12,%rsi
  40434a:	48 89 c7             	mov    %rax,%rdi
  40434d:	e8 fe cf ff ff       	callq  401350 <_ZStlsISt11char_traitsIcEERSt13basic_ostreamIcT_ES5_PKc@plt>
  404352:	48 89 c2             	mov    %rax,%rdx
  404355:	48 8b 45 c0          	mov    -0x40(%rbp),%rax
  404359:	48 89 85 18 ff ff ff 	mov    %rax,-0xe8(%rbp)
  404360:	f2 0f 10 85 18 ff ff 	movsd  -0xe8(%rbp),%xmm0
  404367:	ff 
  404368:	48 89 d7             	mov    %rdx,%rdi
  40436b:	e8 e0 ce ff ff       	callq  401250 <_ZNSolsEd@plt>
  404370:	be 85 78 40 00       	mov    $0x407885,%esi
  404375:	48 89 c7             	mov    %rax,%rdi
  404378:	e8 d3 cf ff ff       	callq  401350 <_ZStlsISt11char_traitsIcEERSt13basic_ostreamIcT_ES5_PKc@plt>
  40437d:	be d0 78 40 00       	mov    $0x4078d0,%esi
  404382:	48 89 c7             	mov    %rax,%rdi
  404385:	e8 c6 cf ff ff       	callq  401350 <_ZStlsISt11char_traitsIcEERSt13basic_ostreamIcT_ES5_PKc@plt>
  40438a:	be d3 78 40 00       	mov    $0x4078d3,%esi
  40438f:	48 89 c7             	mov    %rax,%rdi
  404392:	e8 b9 cf ff ff       	callq  401350 <_ZStlsISt11char_traitsIcEERSt13basic_ostreamIcT_ES5_PKc@plt>
  404397:	48 89 de             	mov    %rbx,%rsi
  40439a:	48 89 c7             	mov    %rax,%rdi
  40439d:	e8 ae cf ff ff       	callq  401350 <_ZStlsISt11char_traitsIcEERSt13basic_ostreamIcT_ES5_PKc@plt>
  4043a2:	f2 0f 10 85 20 ff ff 	movsd  -0xe0(%rbp),%xmm0
  4043a9:	ff 
  4043aa:	48 89 c7             	mov    %rax,%rdi
  4043ad:	e8 9e ce ff ff       	callq  401250 <_ZNSolsEd@plt>
  4043b2:	be d7 78 40 00       	mov    $0x4078d7,%esi
  4043b7:	48 89 c7             	mov    %rax,%rdi
  4043ba:	e8 91 cf ff ff       	callq  401350 <_ZStlsISt11char_traitsIcEERSt13basic_ostreamIcT_ES5_PKc@plt>
  4043bf:	48 89 c2             	mov    %rax,%rdx
  4043c2:	48 8d 45 98          	lea    -0x68(%rbp),%rax
  4043c6:	48 89 c6             	mov    %rax,%rsi
  4043c9:	48 89 d7             	mov    %rdx,%rdi
  4043cc:	e8 6d e5 ff ff       	callq  40293e <_ZN5hayailsERSoRKNS_7Console9TextColorE>
  4043d1:	be da 78 40 00       	mov    $0x4078da,%esi
  4043d6:	48 89 c7             	mov    %rax,%rdi
  4043d9:	e8 72 cf ff ff       	callq  401350 <_ZStlsISt11char_traitsIcEERSt13basic_ostreamIcT_ES5_PKc@plt>
  4043de:	be 40 14 40 00       	mov    $0x401440,%esi
  4043e3:	48 89 c7             	mov    %rax,%rdi
  4043e6:	e8 25 d0 ff ff       	callq  401410 <_ZNSolsEPFRSoS_E@plt>
  4043eb:	bf 05 00 00 00       	mov    $0x5,%edi
  4043f0:	e8 4b e0 ff ff       	callq  402440 <_ZSt12setprecisioni>
  4043f5:	89 c6                	mov    %eax,%esi
  4043f7:	bf e0 b1 60 00       	mov    $0x60b1e0,%edi
  4043fc:	e8 6f ce ff ff       	callq  401270 <_ZStlsIcSt11char_traitsIcEERSt13basic_ostreamIT_T0_ES6_St13_Setprecision@plt>
  404401:	bf 22 00 00 00       	mov    $0x22,%edi
  404406:	e8 41 e0 ff ff       	callq  40244c <_ZSt4setwi>
  40440b:	89 c6                	mov    %eax,%esi
  40440d:	bf e0 b1 60 00       	mov    $0x60b1e0,%edi
  404412:	e8 99 d0 ff ff       	callq  4014b0 <_ZStlsIcSt11char_traitsIcEERSt13basic_ostreamIT_T0_ES6_St5_Setw@plt>
  404417:	be a0 77 40 00       	mov    $0x4077a0,%esi
  40441c:	48 89 c7             	mov    %rax,%rdi
  40441f:	e8 2c cf ff ff       	callq  401350 <_ZStlsISt11char_traitsIcEERSt13basic_ostreamIcT_ES5_PKc@plt>
  404424:	be 40 14 40 00       	mov    $0x401440,%esi
  404429:	48 89 c7             	mov    %rax,%rdi
  40442c:	e8 df cf ff ff       	callq  401410 <_ZNSolsEPFRSoS_E@plt>
  404431:	48 8b 85 28 ff ff ff 	mov    -0xd8(%rbp),%rax
  404438:	48 89 c7             	mov    %rax,%rdi
  40443b:	e8 da e2 ff ff       	callq  40271a <_ZNK5hayai10TestResult26IterationsPerSecondAverageEv>
  404440:	f2 0f 11 85 20 ff ff 	movsd  %xmm0,-0xe0(%rbp)
  404447:	ff 
  404448:	bf 22 00 00 00       	mov    $0x22,%edi
  40444d:	e8 fa df ff ff       	callq  40244c <_ZSt4setwi>
  404452:	89 c6                	mov    %eax,%esi
  404454:	bf e0 b1 60 00       	mov    $0x60b1e0,%edi
  404459:	e8 52 d0 ff ff       	callq  4014b0 <_ZStlsIcSt11char_traitsIcEERSt13basic_ostreamIT_T0_ES6_St5_Setw@plt>
  40445e:	be e6 78 40 00       	mov    $0x4078e6,%esi
  404463:	48 89 c7             	mov    %rax,%rdi
  404466:	e8 e5 ce ff ff       	callq  401350 <_ZStlsISt11char_traitsIcEERSt13basic_ostreamIcT_ES5_PKc@plt>
  40446b:	f2 0f 10 85 20 ff ff 	movsd  -0xe0(%rbp),%xmm0
  404472:	ff 
  404473:	48 89 c7             	mov    %rax,%rdi
  404476:	e8 d5 cd ff ff       	callq  401250 <_ZNSolsEd@plt>
  40447b:	be 40 79 40 00       	mov    $0x407940,%esi
  404480:	48 89 c7             	mov    %rax,%rdi
  404483:	e8 c8 ce ff ff       	callq  401350 <_ZStlsISt11char_traitsIcEERSt13basic_ostreamIcT_ES5_PKc@plt>
  404488:	be 40 14 40 00       	mov    $0x401440,%esi
  40448d:	48 89 c7             	mov    %rax,%rdi
  404490:	e8 7b cf ff ff       	callq  401410 <_ZNSolsEPFRSoS_E@plt>
  404495:	48 8b 85 28 ff ff ff 	mov    -0xd8(%rbp),%rax
  40449c:	48 89 c7             	mov    %rax,%rdi
  40449f:	e8 ca e2 ff ff       	callq  40276e <_ZNK5hayai10TestResult26IterationsPerSecondMaximumEv>
  4044a4:	f2 0f 11 85 20 ff ff 	movsd  %xmm0,-0xe0(%rbp)
  4044ab:	ff 
  4044ac:	48 8b 85 28 ff ff ff 	mov    -0xd8(%rbp),%rax
  4044b3:	48 89 c7             	mov    %rax,%rdi
  4044b6:	e8 5f e2 ff ff       	callq  40271a <_ZNK5hayai10TestResult26IterationsPerSecondAverageEv>
  4044bb:	f2 0f 10 b5 20 ff ff 	movsd  -0xe0(%rbp),%xmm6
  4044c2:	ff 
  4044c3:	f2 0f 5c f0          	subsd  %xmm0,%xmm6
  4044c7:	66 48 0f 7e f0       	movq   %xmm6,%rax
  4044cc:	48 89 45 b8          	mov    %rax,-0x48(%rbp)
  4044d0:	c7 45 a0 00 00 00 00 	movl   $0x0,-0x60(%rbp)
  4044d7:	f2 0f 10 4d b8       	movsd  -0x48(%rbp),%xmm1
  4044dc:	f2 0f 10 05 b4 34 00 	movsd  0x34b4(%rip),%xmm0        # 407998 <_ZZL18__gthread_active_pvE20__gthread_active_ptr+0x20>
  4044e3:	00 
  4044e4:	f2 0f 59 c8          	mulsd  %xmm0,%xmm1
  4044e8:	f2 0f 11 8d 20 ff ff 	movsd  %xmm1,-0xe0(%rbp)
  4044ef:	ff 
  4044f0:	48 8b 85 28 ff ff ff 	mov    -0xd8(%rbp),%rax
  4044f7:	48 89 c7             	mov    %rax,%rdi
  4044fa:	e8 1b e2 ff ff       	callq  40271a <_ZNK5hayai10TestResult26IterationsPerSecondAverageEv>
  4044ff:	f2 0f 10 8d 20 ff ff 	movsd  -0xe0(%rbp),%xmm1
  404506:	ff 
  404507:	f2 0f 5e c8          	divsd  %xmm0,%xmm1
  40450b:	f2 0f 11 8d 20 ff ff 	movsd  %xmm1,-0xe0(%rbp)
  404512:	ff 
  404513:	48 8b 85 28 ff ff ff 	mov    -0xd8(%rbp),%rax
  40451a:	48 89 c7             	mov    %rax,%rdi
  40451d:	e8 4c e2 ff ff       	callq  40276e <_ZNK5hayai10TestResult26IterationsPerSecondMaximumEv>
  404522:	f2 0f 11 85 18 ff ff 	movsd  %xmm0,-0xe8(%rbp)
  404529:	ff 
  40452a:	48 8b 85 28 ff ff ff 	mov    -0xd8(%rbp),%rax
  404531:	48 89 c7             	mov    %rax,%rdi
  404534:	e8 e1 e1 ff ff       	callq  40271a <_ZNK5hayai10TestResult26IterationsPerSecondAverageEv>
  404539:	f2 0f 10 95 18 ff ff 	movsd  -0xe8(%rbp),%xmm2
  404540:	ff 
  404541:	66 0f 2e d0          	ucomisd %xmm0,%xmm2
  404545:	76 07                	jbe    40454e <_ZN5hayai16ConsoleOutputter7EndTestERKSsS2_S2_RKNS_10TestResultE+0x169c>
  404547:	bb c4 78 40 00       	mov    $0x4078c4,%ebx
  40454c:	eb 05                	jmp    404553 <_ZN5hayai16ConsoleOutputter7EndTestERKSsS2_S2_RKNS_10TestResultE+0x16a1>
  40454e:	bb a0 77 40 00       	mov    $0x4077a0,%ebx
  404553:	48 8b 85 28 ff ff ff 	mov    -0xd8(%rbp),%rax
  40455a:	48 89 c7             	mov    %rax,%rdi
  40455d:	e8 0c e2 ff ff       	callq  40276e <_ZNK5hayai10TestResult26IterationsPerSecondMaximumEv>
  404562:	f2 0f 11 85 18 ff ff 	movsd  %xmm0,-0xe8(%rbp)
  404569:	ff 
  40456a:	48 8b 85 28 ff ff ff 	mov    -0xd8(%rbp),%rax
  404571:	48 89 c7             	mov    %rax,%rdi
  404574:	e8 a1 e1 ff ff       	callq  40271a <_ZNK5hayai10TestResult26IterationsPerSecondAverageEv>
  404579:	f2 0f 10 9d 18 ff ff 	movsd  -0xe8(%rbp),%xmm3
  404580:	ff 
  404581:	66 0f 2e d8          	ucomisd %xmm0,%xmm3
  404585:	76 08                	jbe    40458f <_ZN5hayai16ConsoleOutputter7EndTestERKSsS2_S2_RKNS_10TestResultE+0x16dd>
  404587:	41 bc c4 78 40 00    	mov    $0x4078c4,%r12d
  40458d:	eb 06                	jmp    404595 <_ZN5hayai16ConsoleOutputter7EndTestERKSsS2_S2_RKNS_10TestResultE+0x16e3>
  40458f:	41 bc a0 77 40 00    	mov    $0x4077a0,%r12d
  404595:	48 8b 85 28 ff ff ff 	mov    -0xd8(%rbp),%rax
  40459c:	48 89 c7             	mov    %rax,%rdi
  40459f:	e8 ca e1 ff ff       	callq  40276e <_ZNK5hayai10TestResult26IterationsPerSecondMaximumEv>
  4045a4:	f2 0f 11 85 18 ff ff 	movsd  %xmm0,-0xe8(%rbp)
  4045ab:	ff 
  4045ac:	48 8b 85 28 ff ff ff 	mov    -0xd8(%rbp),%rax
  4045b3:	48 89 c7             	mov    %rax,%rdi
  4045b6:	e8 5f e1 ff ff       	callq  40271a <_ZNK5hayai10TestResult26IterationsPerSecondAverageEv>
  4045bb:	66 0f 2e 85 18 ff ff 	ucomisd -0xe8(%rbp),%xmm0
  4045c2:	ff 
  4045c3:	76 07                	jbe    4045cc <_ZN5hayai16ConsoleOutputter7EndTestERKSsS2_S2_RKNS_10TestResultE+0x171a>
  4045c5:	b8 05 00 00 00       	mov    $0x5,%eax
  4045ca:	eb 05                	jmp    4045d1 <_ZN5hayai16ConsoleOutputter7EndTestERKSsS2_S2_RKNS_10TestResultE+0x171f>
  4045cc:	b8 03 00 00 00       	mov    $0x3,%eax
  4045d1:	89 45 a4             	mov    %eax,-0x5c(%rbp)
  4045d4:	48 8b 85 28 ff ff ff 	mov    -0xd8(%rbp),%rax
  4045db:	48 89 c7             	mov    %rax,%rdi
  4045de:	e8 8b e1 ff ff       	callq  40276e <_ZNK5hayai10TestResult26IterationsPerSecondMaximumEv>
  4045e3:	f2 0f 11 85 18 ff ff 	movsd  %xmm0,-0xe8(%rbp)
  4045ea:	ff 
  4045eb:	bf 22 00 00 00       	mov    $0x22,%edi
  4045f0:	e8 57 de ff ff       	callq  40244c <_ZSt4setwi>
  4045f5:	89 c6                	mov    %eax,%esi
  4045f7:	bf e0 b1 60 00       	mov    $0x60b1e0,%edi
  4045fc:	e8 af ce ff ff       	callq  4014b0 <_ZStlsIcSt11char_traitsIcEERSt13basic_ostreamIT_T0_ES6_St5_Setw@plt>
  404601:	be 04 79 40 00       	mov    $0x407904,%esi
  404606:	48 89 c7             	mov    %rax,%rdi
  404609:	e8 42 cd ff ff       	callq  401350 <_ZStlsISt11char_traitsIcEERSt13basic_ostreamIcT_ES5_PKc@plt>
  40460e:	f2 0f 10 85 18 ff ff 	movsd  -0xe8(%rbp),%xmm0
  404615:	ff 
  404616:	48 89 c7             	mov    %rax,%rdi
  404619:	e8 32 cc ff ff       	callq  401250 <_ZNSolsEd@plt>
  40461e:	be 85 78 40 00       	mov    $0x407885,%esi
  404623:	48 89 c7             	mov    %rax,%rdi
  404626:	e8 25 cd ff ff       	callq  401350 <_ZStlsISt11char_traitsIcEERSt13basic_ostreamIcT_ES5_PKc@plt>
  40462b:	be 4e 79 40 00       	mov    $0x40794e,%esi
  404630:	48 89 c7             	mov    %rax,%rdi
  404633:	e8 18 cd ff ff       	callq  401350 <_ZStlsISt11char_traitsIcEERSt13basic_ostreamIcT_ES5_PKc@plt>
  404638:	be 87 78 40 00       	mov    $0x407887,%esi
  40463d:	48 89 c7             	mov    %rax,%rdi
  404640:	e8 0b cd ff ff       	callq  401350 <_ZStlsISt11char_traitsIcEERSt13basic_ostreamIcT_ES5_PKc@plt>
  404645:	48 89 c2             	mov    %rax,%rdx
  404648:	48 8d 45 a4          	lea    -0x5c(%rbp),%rax
  40464c:	48 89 c6             	mov    %rax,%rsi
  40464f:	48 89 d7             	mov    %rdx,%rdi
  404652:	e8 e7 e2 ff ff       	callq  40293e <_ZN5hayailsERSoRKNS_7Console9TextColorE>
  404657:	4c 89 e6             	mov    %r12,%rsi
  40465a:	48 89 c7             	mov    %rax,%rdi
  40465d:	e8 ee cc ff ff       	callq  401350 <_ZStlsISt11char_traitsIcEERSt13basic_ostreamIcT_ES5_PKc@plt>
  404662:	48 89 c2             	mov    %rax,%rdx
  404665:	48 8b 45 b8          	mov    -0x48(%rbp),%rax
  404669:	48 89 85 18 ff ff ff 	mov    %rax,-0xe8(%rbp)
  404670:	f2 0f 10 85 18 ff ff 	movsd  -0xe8(%rbp),%xmm0
  404677:	ff 
  404678:	48 89 d7             	mov    %rdx,%rdi
  40467b:	e8 d0 cb ff ff       	callq  401250 <_ZNSolsEd@plt>
  404680:	be 85 78 40 00       	mov    $0x407885,%esi
  404685:	48 89 c7             	mov    %rax,%rdi
  404688:	e8 c3 cc ff ff       	callq  401350 <_ZStlsISt11char_traitsIcEERSt13basic_ostreamIcT_ES5_PKc@plt>
  40468d:	be 4e 79 40 00       	mov    $0x40794e,%esi
  404692:	48 89 c7             	mov    %rax,%rdi
  404695:	e8 b6 cc ff ff       	callq  401350 <_ZStlsISt11char_traitsIcEERSt13basic_ostreamIcT_ES5_PKc@plt>
  40469a:	be d3 78 40 00       	mov    $0x4078d3,%esi
  40469f:	48 89 c7             	mov    %rax,%rdi
  4046a2:	e8 a9 cc ff ff       	callq  401350 <_ZStlsISt11char_traitsIcEERSt13basic_ostreamIcT_ES5_PKc@plt>
  4046a7:	48 89 de             	mov    %rbx,%rsi
  4046aa:	48 89 c7             	mov    %rax,%rdi
  4046ad:	e8 9e cc ff ff       	callq  401350 <_ZStlsISt11char_traitsIcEERSt13basic_ostreamIcT_ES5_PKc@plt>
  4046b2:	f2 0f 10 85 20 ff ff 	movsd  -0xe0(%rbp),%xmm0
  4046b9:	ff 
  4046ba:	48 89 c7             	mov    %rax,%rdi
  4046bd:	e8 8e cb ff ff       	callq  401250 <_ZNSolsEd@plt>
  4046c2:	be d7 78 40 00       	mov    $0x4078d7,%esi
  4046c7:	48 89 c7             	mov    %rax,%rdi
  4046ca:	e8 81 cc ff ff       	callq  401350 <_ZStlsISt11char_traitsIcEERSt13basic_ostreamIcT_ES5_PKc@plt>
  4046cf:	48 89 c2             	mov    %rax,%rdx
  4046d2:	48 8d 45 a0          	lea    -0x60(%rbp),%rax
  4046d6:	48 89 c6             	mov    %rax,%rsi
  4046d9:	48 89 d7             	mov    %rdx,%rdi
  4046dc:	e8 5d e2 ff ff       	callq  40293e <_ZN5hayailsERSoRKNS_7Console9TextColorE>
  4046e1:	be da 78 40 00       	mov    $0x4078da,%esi
  4046e6:	48 89 c7             	mov    %rax,%rdi
  4046e9:	e8 62 cc ff ff       	callq  401350 <_ZStlsISt11char_traitsIcEERSt13basic_ostreamIcT_ES5_PKc@plt>
  4046ee:	be 40 14 40 00       	mov    $0x401440,%esi
  4046f3:	48 89 c7             	mov    %rax,%rdi
  4046f6:	e8 15 cd ff ff       	callq  401410 <_ZNSolsEPFRSoS_E@plt>
  4046fb:	48 8b 85 28 ff ff ff 	mov    -0xd8(%rbp),%rax
  404702:	48 89 c7             	mov    %rax,%rdi
  404705:	e8 3a e0 ff ff       	callq  402744 <_ZNK5hayai10TestResult26IterationsPerSecondMinimumEv>
  40470a:	f2 0f 11 85 20 ff ff 	movsd  %xmm0,-0xe0(%rbp)
  404711:	ff 
  404712:	48 8b 85 28 ff ff ff 	mov    -0xd8(%rbp),%rax
  404719:	48 89 c7             	mov    %rax,%rdi
  40471c:	e8 f9 df ff ff       	callq  40271a <_ZNK5hayai10TestResult26IterationsPerSecondAverageEv>
  404721:	f2 0f 10 bd 20 ff ff 	movsd  -0xe0(%rbp),%xmm7
  404728:	ff 
  404729:	f2 0f 5c f8          	subsd  %xmm0,%xmm7
  40472d:	66 48 0f 7e f8       	movq   %xmm7,%rax
  404732:	48 89 45 b0          	mov    %rax,-0x50(%rbp)
  404736:	c7 45 a8 00 00 00 00 	movl   $0x0,-0x58(%rbp)
  40473d:	f2 0f 10 4d b0       	movsd  -0x50(%rbp),%xmm1
  404742:	f2 0f 10 05 4e 32 00 	movsd  0x324e(%rip),%xmm0        # 407998 <_ZZL18__gthread_active_pvE20__gthread_active_ptr+0x20>
  404749:	00 
  40474a:	f2 0f 59 c8          	mulsd  %xmm0,%xmm1
  40474e:	f2 0f 11 8d 20 ff ff 	movsd  %xmm1,-0xe0(%rbp)
  404755:	ff 
  404756:	48 8b 85 28 ff ff ff 	mov    -0xd8(%rbp),%rax
  40475d:	48 89 c7             	mov    %rax,%rdi
  404760:	e8 b5 df ff ff       	callq  40271a <_ZNK5hayai10TestResult26IterationsPerSecondAverageEv>
  404765:	f2 0f 10 8d 20 ff ff 	movsd  -0xe0(%rbp),%xmm1
  40476c:	ff 
  40476d:	f2 0f 5e c8          	divsd  %xmm0,%xmm1
  404771:	f2 0f 11 8d 20 ff ff 	movsd  %xmm1,-0xe0(%rbp)
  404778:	ff 
  404779:	48 8b 85 28 ff ff ff 	mov    -0xd8(%rbp),%rax
  404780:	48 89 c7             	mov    %rax,%rdi
  404783:	e8 bc df ff ff       	callq  402744 <_ZNK5hayai10TestResult26IterationsPerSecondMinimumEv>
  404788:	f2 0f 11 85 18 ff ff 	movsd  %xmm0,-0xe8(%rbp)
  40478f:	ff 
  404790:	48 8b 85 28 ff ff ff 	mov    -0xd8(%rbp),%rax
  404797:	48 89 c7             	mov    %rax,%rdi
  40479a:	e8 7b df ff ff       	callq  40271a <_ZNK5hayai10TestResult26IterationsPerSecondAverageEv>
  40479f:	f2 0f 10 ad 18 ff ff 	movsd  -0xe8(%rbp),%xmm5
  4047a6:	ff 
  4047a7:	66 0f 2e e8          	ucomisd %xmm0,%xmm5
  4047ab:	76 07                	jbe    4047b4 <_ZN5hayai16ConsoleOutputter7EndTestERKSsS2_S2_RKNS_10TestResultE+0x1902>
  4047ad:	bb c4 78 40 00       	mov    $0x4078c4,%ebx
  4047b2:	eb 05                	jmp    4047b9 <_ZN5hayai16ConsoleOutputter7EndTestERKSsS2_S2_RKNS_10TestResultE+0x1907>
  4047b4:	bb a0 77 40 00       	mov    $0x4077a0,%ebx
  4047b9:	48 8b 85 28 ff ff ff 	mov    -0xd8(%rbp),%rax
  4047c0:	48 89 c7             	mov    %rax,%rdi
  4047c3:	e8 7c df ff ff       	callq  402744 <_ZNK5hayai10TestResult26IterationsPerSecondMinimumEv>
  4047c8:	f2 0f 11 85 18 ff ff 	movsd  %xmm0,-0xe8(%rbp)
  4047cf:	ff 
  4047d0:	48 8b 85 28 ff ff ff 	mov    -0xd8(%rbp),%rax
  4047d7:	48 89 c7             	mov    %rax,%rdi
  4047da:	e8 3b df ff ff       	callq  40271a <_ZNK5hayai10TestResult26IterationsPerSecondAverageEv>
  4047df:	f2 0f 10 b5 18 ff ff 	movsd  -0xe8(%rbp),%xmm6
  4047e6:	ff 
  4047e7:	66 0f 2e f0          	ucomisd %xmm0,%xmm6
  4047eb:	76 08                	jbe    4047f5 <_ZN5hayai16ConsoleOutputter7EndTestERKSsS2_S2_RKNS_10TestResultE+0x1943>
  4047ed:	41 bc c4 78 40 00    	mov    $0x4078c4,%r12d
  4047f3:	eb 06                	jmp    4047fb <_ZN5hayai16ConsoleOutputter7EndTestERKSsS2_S2_RKNS_10TestResultE+0x1949>
  4047f5:	41 bc a0 77 40 00    	mov    $0x4077a0,%r12d
  4047fb:	48 8b 85 28 ff ff ff 	mov    -0xd8(%rbp),%rax
  404802:	48 89 c7             	mov    %rax,%rdi
  404805:	e8 3a df ff ff       	callq  402744 <_ZNK5hayai10TestResult26IterationsPerSecondMinimumEv>
  40480a:	f2 0f 11 85 18 ff ff 	movsd  %xmm0,-0xe8(%rbp)
  404811:	ff 
  404812:	48 8b 85 28 ff ff ff 	mov    -0xd8(%rbp),%rax
  404819:	48 89 c7             	mov    %rax,%rdi
  40481c:	e8 f9 de ff ff       	callq  40271a <_ZNK5hayai10TestResult26IterationsPerSecondAverageEv>
  404821:	66 0f 2e 85 18 ff ff 	ucomisd -0xe8(%rbp),%xmm0
  404828:	ff 
  404829:	76 07                	jbe    404832 <_ZN5hayai16ConsoleOutputter7EndTestERKSsS2_S2_RKNS_10TestResultE+0x1980>
  40482b:	b8 05 00 00 00       	mov    $0x5,%eax
  404830:	eb 05                	jmp    404837 <_ZN5hayai16ConsoleOutputter7EndTestERKSsS2_S2_RKNS_10TestResultE+0x1985>
  404832:	b8 03 00 00 00       	mov    $0x3,%eax
  404837:	89 45 ac             	mov    %eax,-0x54(%rbp)
  40483a:	48 8b 85 28 ff ff ff 	mov    -0xd8(%rbp),%rax
  404841:	48 89 c7             	mov    %rax,%rdi
  404844:	e8 fb de ff ff       	callq  402744 <_ZNK5hayai10TestResult26IterationsPerSecondMinimumEv>
  404849:	f2 0f 11 85 18 ff ff 	movsd  %xmm0,-0xe8(%rbp)
  404850:	ff 
  404851:	bf 22 00 00 00       	mov    $0x22,%edi
  404856:	e8 f1 db ff ff       	callq  40244c <_ZSt4setwi>
  40485b:	89 c6                	mov    %eax,%esi
  40485d:	bf e0 b1 60 00       	mov    $0x60b1e0,%edi
  404862:	e8 49 cc ff ff       	callq  4014b0 <_ZStlsIcSt11char_traitsIcEERSt13basic_ostreamIT_T0_ES6_St5_Setw@plt>
  404867:	be 1e 79 40 00       	mov    $0x40791e,%esi
  40486c:	48 89 c7             	mov    %rax,%rdi
  40486f:	e8 dc ca ff ff       	callq  401350 <_ZStlsISt11char_traitsIcEERSt13basic_ostreamIcT_ES5_PKc@plt>
  404874:	f2 0f 10 85 18 ff ff 	movsd  -0xe8(%rbp),%xmm0
  40487b:	ff 
  40487c:	48 89 c7             	mov    %rax,%rdi
  40487f:	e8 cc c9 ff ff       	callq  401250 <_ZNSolsEd@plt>
  404884:	be 85 78 40 00       	mov    $0x407885,%esi
  404889:	48 89 c7             	mov    %rax,%rdi
  40488c:	e8 bf ca ff ff       	callq  401350 <_ZStlsISt11char_traitsIcEERSt13basic_ostreamIcT_ES5_PKc@plt>
  404891:	be 4e 79 40 00       	mov    $0x40794e,%esi
  404896:	48 89 c7             	mov    %rax,%rdi
  404899:	e8 b2 ca ff ff       	callq  401350 <_ZStlsISt11char_traitsIcEERSt13basic_ostreamIcT_ES5_PKc@plt>
  40489e:	be 87 78 40 00       	mov    $0x407887,%esi
  4048a3:	48 89 c7             	mov    %rax,%rdi
  4048a6:	e8 a5 ca ff ff       	callq  401350 <_ZStlsISt11char_traitsIcEERSt13basic_ostreamIcT_ES5_PKc@plt>
  4048ab:	48 89 c2             	mov    %rax,%rdx
  4048ae:	48 8d 45 ac          	lea    -0x54(%rbp),%rax
  4048b2:	48 89 c6             	mov    %rax,%rsi
  4048b5:	48 89 d7             	mov    %rdx,%rdi
  4048b8:	e8 81 e0 ff ff       	callq  40293e <_ZN5hayailsERSoRKNS_7Console9TextColorE>
  4048bd:	4c 89 e6             	mov    %r12,%rsi
  4048c0:	48 89 c7             	mov    %rax,%rdi
  4048c3:	e8 88 ca ff ff       	callq  401350 <_ZStlsISt11char_traitsIcEERSt13basic_ostreamIcT_ES5_PKc@plt>
  4048c8:	48 89 c2             	mov    %rax,%rdx
  4048cb:	48 8b 45 b0          	mov    -0x50(%rbp),%rax
  4048cf:	48 89 85 18 ff ff ff 	mov    %rax,-0xe8(%rbp)
  4048d6:	f2 0f 10 85 18 ff ff 	movsd  -0xe8(%rbp),%xmm0
  4048dd:	ff 
  4048de:	48 89 d7             	mov    %rdx,%rdi
  4048e1:	e8 6a c9 ff ff       	callq  401250 <_ZNSolsEd@plt>
  4048e6:	be 85 78 40 00       	mov    $0x407885,%esi
  4048eb:	48 89 c7             	mov    %rax,%rdi
  4048ee:	e8 5d ca ff ff       	callq  401350 <_ZStlsISt11char_traitsIcEERSt13basic_ostreamIcT_ES5_PKc@plt>
  4048f3:	be 4e 79 40 00       	mov    $0x40794e,%esi
  4048f8:	48 89 c7             	mov    %rax,%rdi
  4048fb:	e8 50 ca ff ff       	callq  401350 <_ZStlsISt11char_traitsIcEERSt13basic_ostreamIcT_ES5_PKc@plt>
  404900:	be d3 78 40 00       	mov    $0x4078d3,%esi
  404905:	48 89 c7             	mov    %rax,%rdi
  404908:	e8 43 ca ff ff       	callq  401350 <_ZStlsISt11char_traitsIcEERSt13basic_ostreamIcT_ES5_PKc@plt>
  40490d:	48 89 de             	mov    %rbx,%rsi
  404910:	48 89 c7             	mov    %rax,%rdi
  404913:	e8 38 ca ff ff       	callq  401350 <_ZStlsISt11char_traitsIcEERSt13basic_ostreamIcT_ES5_PKc@plt>
  404918:	f2 0f 10 85 20 ff ff 	movsd  -0xe0(%rbp),%xmm0
  40491f:	ff 
  404920:	48 89 c7             	mov    %rax,%rdi
  404923:	e8 28 c9 ff ff       	callq  401250 <_ZNSolsEd@plt>
  404928:	be d7 78 40 00       	mov    $0x4078d7,%esi
  40492d:	48 89 c7             	mov    %rax,%rdi
  404930:	e8 1b ca ff ff       	callq  401350 <_ZStlsISt11char_traitsIcEERSt13basic_ostreamIcT_ES5_PKc@plt>
  404935:	48 89 c2             	mov    %rax,%rdx
  404938:	48 8d 45 a8          	lea    -0x58(%rbp),%rax
  40493c:	48 89 c6             	mov    %rax,%rsi
  40493f:	48 89 d7             	mov    %rdx,%rdi
  404942:	e8 f7 df ff ff       	callq  40293e <_ZN5hayailsERSoRKNS_7Console9TextColorE>
  404947:	be da 78 40 00       	mov    $0x4078da,%esi
  40494c:	48 89 c7             	mov    %rax,%rdi
  40494f:	e8 fc c9 ff ff       	callq  401350 <_ZStlsISt11char_traitsIcEERSt13basic_ostreamIcT_ES5_PKc@plt>
  404954:	be 40 14 40 00       	mov    $0x401440,%esi
  404959:	48 89 c7             	mov    %rax,%rdi
  40495c:	e8 af ca ff ff       	callq  401410 <_ZNSolsEPFRSoS_E@plt>
  404961:	48 81 c4 e0 00 00 00 	add    $0xe0,%rsp
  404968:	5b                   	pop    %rbx
  404969:	41 5c                	pop    %r12
  40496b:	5d                   	pop    %rbp
  40496c:	c3                   	retq   

000000000040496d <_ZN5hayai11Benchmarker12AddOutputterERNS_9OutputterE>:
  40496d:	55                   	push   %rbp
  40496e:	48 89 e5             	mov    %rsp,%rbp
  404971:	48 83 ec 20          	sub    $0x20,%rsp
  404975:	48 89 7d e8          	mov    %rdi,-0x18(%rbp)
  404979:	48 8b 45 e8          	mov    -0x18(%rbp),%rax
  40497d:	48 89 45 f8          	mov    %rax,-0x8(%rbp)
  404981:	e8 6a d4 ff ff       	callq  401df0 <_ZN5hayai11Benchmarker8InstanceEv>
  404986:	48 89 c2             	mov    %rax,%rdx
  404989:	48 8d 45 f8          	lea    -0x8(%rbp),%rax
  40498d:	48 89 c6             	mov    %rax,%rsi
  404990:	48 89 d7             	mov    %rdx,%rdi
  404993:	e8 1c 0a 00 00       	callq  4053b4 <_ZNSt6vectorIPN5hayai9OutputterESaIS2_EE9push_backERKS2_>
  404998:	c9                   	leaveq 
  404999:	c3                   	retq   

000000000040499a <_ZN5hayai11Benchmarker11RunAllTestsEv>:
  40499a:	55                   	push   %rbp
  40499b:	48 89 e5             	mov    %rsp,%rbp
  40499e:	41 54                	push   %r12
  4049a0:	53                   	push   %rbx
  4049a1:	48 81 ec 40 01 00 00 	sub    $0x140,%rsp
  4049a8:	e8 43 d4 ff ff       	callq  401df0 <_ZN5hayai11Benchmarker8InstanceEv>
  4049ad:	48 89 45 88          	mov    %rax,-0x78(%rbp)
  4049b1:	48 8b 45 88          	mov    -0x78(%rbp),%rax
  4049b5:	48 89 45 80          	mov    %rax,-0x80(%rbp)
  4049b9:	48 8d 85 00 ff ff ff 	lea    -0x100(%rbp),%rax
  4049c0:	48 8b 55 88          	mov    -0x78(%rbp),%rdx
  4049c4:	48 89 d6             	mov    %rdx,%rsi
  4049c7:	48 89 c7             	mov    %rax,%rdi
  4049ca:	e8 0d 07 00 00       	callq  4050dc <_ZNK5hayai11Benchmarker8GetTestsEv>
  4049cf:	48 8d 85 00 ff ff ff 	lea    -0x100(%rbp),%rax
  4049d6:	48 89 c7             	mov    %rax,%rdi
  4049d9:	e8 b6 0a 00 00       	callq  405494 <_ZNKSt6vectorIPN5hayai14TestDescriptorESaIS2_EE4sizeEv>
  4049de:	48 89 85 78 ff ff ff 	mov    %rax,-0x88(%rbp)
  4049e5:	48 c7 85 f8 fe ff ff 	movq   $0x0,-0x108(%rbp)
  4049ec:	00 00 00 00 
  4049f0:	48 8d 85 00 ff ff ff 	lea    -0x100(%rbp),%rax
  4049f7:	48 89 c7             	mov    %rax,%rdi
  4049fa:	e8 bb 0a 00 00       	callq  4054ba <_ZNSt6vectorIPN5hayai14TestDescriptorESaIS2_EE5beginEv>
  4049ff:	48 89 85 20 ff ff ff 	mov    %rax,-0xe0(%rbp)
  404a06:	48 8d 95 20 ff ff ff 	lea    -0xe0(%rbp),%rdx
  404a0d:	48 8d 85 f0 fe ff ff 	lea    -0x110(%rbp),%rax
  404a14:	48 89 d6             	mov    %rdx,%rsi
  404a17:	48 89 c7             	mov    %rax,%rdi
  404a1a:	e8 c1 0a 00 00       	callq  4054e0 <_ZN9__gnu_cxx17__normal_iteratorIPKPN5hayai14TestDescriptorESt6vectorIS3_SaIS3_EEEC1IPS3_EERKNS0_IT_NS_11__enable_ifIXsrSt10__are_sameISC_SB_E7__valueES8_E6__typeEEE>
  404a1f:	eb 3b                	jmp    404a5c <_ZN5hayai11Benchmarker11RunAllTestsEv+0xc2>
  404a21:	48 8d 85 f0 fe ff ff 	lea    -0x110(%rbp),%rax
  404a28:	48 89 c7             	mov    %rax,%rdi
  404a2b:	e8 3e 0b 00 00       	callq  40556e <_ZNK9__gnu_cxx17__normal_iteratorIPKPN5hayai14TestDescriptorESt6vectorIS3_SaIS3_EEEdeEv>
  404a30:	48 8b 00             	mov    (%rax),%rax
  404a33:	0f b6 40 30          	movzbl 0x30(%rax),%eax
  404a37:	84 c0                	test   %al,%al
  404a39:	74 12                	je     404a4d <_ZN5hayai11Benchmarker11RunAllTestsEv+0xb3>
  404a3b:	48 8b 85 f8 fe ff ff 	mov    -0x108(%rbp),%rax
  404a42:	48 83 c0 01          	add    $0x1,%rax
  404a46:	48 89 85 f8 fe ff ff 	mov    %rax,-0x108(%rbp)
  404a4d:	48 8d 85 f0 fe ff ff 	lea    -0x110(%rbp),%rax
  404a54:	48 89 c7             	mov    %rax,%rdi
  404a57:	e8 24 0b 00 00       	callq  405580 <_ZN9__gnu_cxx17__normal_iteratorIPKPN5hayai14TestDescriptorESt6vectorIS3_SaIS3_EEEppEv>
  404a5c:	48 8d 85 00 ff ff ff 	lea    -0x100(%rbp),%rax
  404a63:	48 89 c7             	mov    %rax,%rdi
  404a66:	e8 9d 0a 00 00       	callq  405508 <_ZNSt6vectorIPN5hayai14TestDescriptorESaIS2_EE3endEv>
  404a6b:	48 89 85 30 ff ff ff 	mov    %rax,-0xd0(%rbp)
  404a72:	48 8d 95 30 ff ff ff 	lea    -0xd0(%rbp),%rdx
  404a79:	48 8d 85 f0 fe ff ff 	lea    -0x110(%rbp),%rax
  404a80:	48 89 d6             	mov    %rdx,%rsi
  404a83:	48 89 c7             	mov    %rax,%rdi
  404a86:	e8 a6 0a 00 00       	callq  405531 <_ZN9__gnu_cxxneIPKPN5hayai14TestDescriptorEPS3_St6vectorIS3_SaIS3_EEEEbRKNS_17__normal_iteratorIT_T1_EERKNSA_IT0_SC_EE>
  404a8b:	84 c0                	test   %al,%al
  404a8d:	75 92                	jne    404a21 <_ZN5hayai11Benchmarker11RunAllTestsEv+0x87>
  404a8f:	48 8b 85 f8 fe ff ff 	mov    -0x108(%rbp),%rax
  404a96:	48 8b 95 78 ff ff ff 	mov    -0x88(%rbp),%rdx
  404a9d:	48 29 c2             	sub    %rax,%rdx
  404aa0:	48 89 d0             	mov    %rdx,%rax
  404aa3:	48 89 85 e8 fe ff ff 	mov    %rax,-0x118(%rbp)
  404aaa:	48 c7 45 e8 00 00 00 	movq   $0x0,-0x18(%rbp)
  404ab1:	00 
  404ab2:	eb 34                	jmp    404ae8 <_ZN5hayai11Benchmarker11RunAllTestsEv+0x14e>
  404ab4:	48 8b 55 e8          	mov    -0x18(%rbp),%rdx
  404ab8:	48 8b 45 80          	mov    -0x80(%rbp),%rax
  404abc:	48 89 d6             	mov    %rdx,%rsi
  404abf:	48 89 c7             	mov    %rax,%rdi
  404ac2:	e8 ff 0a 00 00       	callq  4055c6 <_ZNSt6vectorIPN5hayai9OutputterESaIS2_EEixEm>
  404ac7:	48 8b 00             	mov    (%rax),%rax
  404aca:	48 8b 10             	mov    (%rax),%rdx
  404acd:	48 8b 0a             	mov    (%rdx),%rcx
  404ad0:	48 8d 95 f8 fe ff ff 	lea    -0x108(%rbp),%rdx
  404ad7:	48 8d b5 e8 fe ff ff 	lea    -0x118(%rbp),%rsi
  404ade:	48 89 c7             	mov    %rax,%rdi
  404ae1:	ff d1                	callq  *%rcx
  404ae3:	48 83 45 e8 01       	addq   $0x1,-0x18(%rbp)
  404ae8:	48 8b 45 80          	mov    -0x80(%rbp),%rax
  404aec:	48 89 c7             	mov    %rax,%rdi
  404aef:	e8 ac 0a 00 00       	callq  4055a0 <_ZNKSt6vectorIPN5hayai9OutputterESaIS2_EE4sizeEv>
  404af4:	48 3b 45 e8          	cmp    -0x18(%rbp),%rax
  404af8:	0f 97 c0             	seta   %al
  404afb:	84 c0                	test   %al,%al
  404afd:	75 b5                	jne    404ab4 <_ZN5hayai11Benchmarker11RunAllTestsEv+0x11a>
  404aff:	48 c7 45 e0 00 00 00 	movq   $0x0,-0x20(%rbp)
  404b06:	00 
  404b07:	e9 45 04 00 00       	jmpq   404f51 <_ZN5hayai11Benchmarker11RunAllTestsEv+0x5b7>
  404b0c:	48 8b 45 e0          	mov    -0x20(%rbp),%rax
  404b10:	48 8d 50 01          	lea    0x1(%rax),%rdx
  404b14:	48 89 55 e0          	mov    %rdx,-0x20(%rbp)
  404b18:	48 8d 95 00 ff ff ff 	lea    -0x100(%rbp),%rdx
  404b1f:	48 89 c6             	mov    %rax,%rsi
  404b22:	48 89 d7             	mov    %rdx,%rdi
  404b25:	e8 bc 0a 00 00       	callq  4055e6 <_ZNSt6vectorIPN5hayai14TestDescriptorESaIS2_EEixEm>
  404b2a:	48 8b 00             	mov    (%rax),%rax
  404b2d:	48 89 85 70 ff ff ff 	mov    %rax,-0x90(%rbp)
  404b34:	48 8b 45 88          	mov    -0x78(%rbp),%rax
  404b38:	48 83 c0 30          	add    $0x30,%rax
  404b3c:	48 89 c7             	mov    %rax,%rdi
  404b3f:	e8 c2 0a 00 00       	callq  405606 <_ZNKSt6vectorISsSaISsEE4sizeEv>
  404b44:	48 85 c0             	test   %rax,%rax
  404b47:	0f 95 c0             	setne  %al
  404b4a:	84 c0                	test   %al,%al
  404b4c:	0f 84 2a 01 00 00    	je     404c7c <_ZN5hayai11Benchmarker11RunAllTestsEv+0x2e2>
  404b52:	c6 45 df 00          	movb   $0x0,-0x21(%rbp)
  404b56:	48 8b 85 70 ff ff ff 	mov    -0x90(%rbp),%rax
  404b5d:	48 8d 58 28          	lea    0x28(%rax),%rbx
  404b61:	48 8b 85 70 ff ff ff 	mov    -0x90(%rbp),%rax
  404b68:	4c 8d 60 08          	lea    0x8(%rax),%r12
  404b6c:	48 8b 8d 70 ff ff ff 	mov    -0x90(%rbp),%rcx
  404b73:	48 8d 85 50 ff ff ff 	lea    -0xb0(%rbp),%rax
  404b7a:	ba 20 78 40 00       	mov    $0x407820,%edx
  404b7f:	48 89 ce             	mov    %rcx,%rsi
  404b82:	48 89 c7             	mov    %rax,%rdi
  404b85:	e8 a2 0a 00 00       	callq  40562c <_ZStplIcSt11char_traitsIcESaIcEESbIT_T0_T1_ERKS6_PKS3_>
  404b8a:	48 8d 85 40 ff ff ff 	lea    -0xc0(%rbp),%rax
  404b91:	48 8d 8d 50 ff ff ff 	lea    -0xb0(%rbp),%rcx
  404b98:	4c 89 e2             	mov    %r12,%rdx
  404b9b:	48 89 ce             	mov    %rcx,%rsi
  404b9e:	48 89 c7             	mov    %rax,%rdi
  404ba1:	e8 e8 0a 00 00       	callq  40568e <_ZStplIcSt11char_traitsIcESaIcEESbIT_T0_T1_ERKS6_S8_>
  404ba6:	48 8d 85 e0 fe ff ff 	lea    -0x120(%rbp),%rax
  404bad:	48 8d 8d 40 ff ff ff 	lea    -0xc0(%rbp),%rcx
  404bb4:	48 89 da             	mov    %rbx,%rdx
  404bb7:	48 89 ce             	mov    %rcx,%rsi
  404bba:	48 89 c7             	mov    %rax,%rdi
  404bbd:	e8 cc 0a 00 00       	callq  40568e <_ZStplIcSt11char_traitsIcESaIcEESbIT_T0_T1_ERKS6_S8_>
  404bc2:	48 8d 85 40 ff ff ff 	lea    -0xc0(%rbp),%rax
  404bc9:	48 89 c7             	mov    %rax,%rdi
  404bcc:	e8 8f c7 ff ff       	callq  401360 <_ZNSsD1Ev@plt>
  404bd1:	48 8d 85 50 ff ff ff 	lea    -0xb0(%rbp),%rax
  404bd8:	48 89 c7             	mov    %rax,%rdi
  404bdb:	e8 80 c7 ff ff       	callq  401360 <_ZNSsD1Ev@plt>
  404be0:	48 c7 45 d0 00 00 00 	movq   $0x0,-0x30(%rbp)
  404be7:	00 
  404be8:	eb 47                	jmp    404c31 <_ZN5hayai11Benchmarker11RunAllTestsEv+0x297>
  404bea:	48 8b 45 88          	mov    -0x78(%rbp),%rax
  404bee:	48 8d 50 30          	lea    0x30(%rax),%rdx
  404bf2:	48 8b 45 d0          	mov    -0x30(%rbp),%rax
  404bf6:	48 89 c6             	mov    %rax,%rsi
  404bf9:	48 89 d7             	mov    %rdx,%rdi
  404bfc:	e8 ef 0a 00 00       	callq  4056f0 <_ZNSt6vectorISsSaISsEEixEm>
  404c01:	48 89 c1             	mov    %rax,%rcx
  404c04:	48 8d 85 e0 fe ff ff 	lea    -0x120(%rbp),%rax
  404c0b:	ba 00 00 00 00       	mov    $0x0,%edx
  404c10:	48 89 ce             	mov    %rcx,%rsi
  404c13:	48 89 c7             	mov    %rax,%rdi
  404c16:	e8 15 c7 ff ff       	callq  401330 <_ZNKSs4findERKSsm@plt>
  404c1b:	48 83 f8 ff          	cmp    $0xffffffffffffffff,%rax
  404c1f:	0f 95 c0             	setne  %al
  404c22:	84 c0                	test   %al,%al
  404c24:	74 06                	je     404c2c <_ZN5hayai11Benchmarker11RunAllTestsEv+0x292>
  404c26:	c6 45 df 01          	movb   $0x1,-0x21(%rbp)
  404c2a:	eb 20                	jmp    404c4c <_ZN5hayai11Benchmarker11RunAllTestsEv+0x2b2>
  404c2c:	48 83 45 d0 01       	addq   $0x1,-0x30(%rbp)
  404c31:	48 8b 45 88          	mov    -0x78(%rbp),%rax
  404c35:	48 83 c0 30          	add    $0x30,%rax
  404c39:	48 89 c7             	mov    %rax,%rdi
  404c3c:	e8 c5 09 00 00       	callq  405606 <_ZNKSt6vectorISsSaISsEE4sizeEv>
  404c41:	48 3b 45 d0          	cmp    -0x30(%rbp),%rax
  404c45:	0f 97 c0             	seta   %al
  404c48:	84 c0                	test   %al,%al
  404c4a:	75 9e                	jne    404bea <_ZN5hayai11Benchmarker11RunAllTestsEv+0x250>
  404c4c:	0f b6 45 df          	movzbl -0x21(%rbp),%eax
  404c50:	83 f0 01             	xor    $0x1,%eax
  404c53:	84 c0                	test   %al,%al
  404c55:	74 07                	je     404c5e <_ZN5hayai11Benchmarker11RunAllTestsEv+0x2c4>
  404c57:	bb 00 00 00 00       	mov    $0x0,%ebx
  404c5c:	eb 05                	jmp    404c63 <_ZN5hayai11Benchmarker11RunAllTestsEv+0x2c9>
  404c5e:	bb 01 00 00 00       	mov    $0x1,%ebx
  404c63:	48 8d 85 e0 fe ff ff 	lea    -0x120(%rbp),%rax
  404c6a:	48 89 c7             	mov    %rax,%rdi
  404c6d:	e8 ee c6 ff ff       	callq  401360 <_ZNSsD1Ev@plt>
  404c72:	83 fb 01             	cmp    $0x1,%ebx
  404c75:	0f 85 d6 02 00 00    	jne    404f51 <_ZN5hayai11Benchmarker11RunAllTestsEv+0x5b7>
  404c7b:	90                   	nop
  404c7c:	48 8b 85 70 ff ff ff 	mov    -0x90(%rbp),%rax
  404c83:	0f b6 40 30          	movzbl 0x30(%rax),%eax
  404c87:	84 c0                	test   %al,%al
  404c89:	0f 84 8a 00 00 00    	je     404d19 <_ZN5hayai11Benchmarker11RunAllTestsEv+0x37f>
  404c8f:	48 c7 45 c8 00 00 00 	movq   $0x0,-0x38(%rbp)
  404c96:	00 
  404c97:	eb 64                	jmp    404cfd <_ZN5hayai11Benchmarker11RunAllTestsEv+0x363>
  404c99:	48 8b 55 c8          	mov    -0x38(%rbp),%rdx
  404c9d:	48 8b 45 80          	mov    -0x80(%rbp),%rax
  404ca1:	48 89 d6             	mov    %rdx,%rsi
  404ca4:	48 89 c7             	mov    %rax,%rdi
  404ca7:	e8 1a 09 00 00       	callq  4055c6 <_ZNSt6vectorIPN5hayai9OutputterESaIS2_EEixEm>
  404cac:	48 8b 00             	mov    (%rax),%rax
  404caf:	48 8b 10             	mov    (%rax),%rdx
  404cb2:	48 83 c2 20          	add    $0x20,%rdx
  404cb6:	4c 8b 12             	mov    (%rdx),%r10
  404cb9:	48 8b 95 70 ff ff ff 	mov    -0x90(%rbp),%rdx
  404cc0:	4c 8d 42 18          	lea    0x18(%rdx),%r8
  404cc4:	48 8b 95 70 ff ff ff 	mov    -0x90(%rbp),%rdx
  404ccb:	48 8d 7a 10          	lea    0x10(%rdx),%rdi
  404ccf:	48 8b 95 70 ff ff ff 	mov    -0x90(%rbp),%rdx
  404cd6:	48 8d 4a 28          	lea    0x28(%rdx),%rcx
  404cda:	48 8b 95 70 ff ff ff 	mov    -0x90(%rbp),%rdx
  404ce1:	48 83 c2 08          	add    $0x8,%rdx
  404ce5:	48 8b b5 70 ff ff ff 	mov    -0x90(%rbp),%rsi
  404cec:	4d 89 c1             	mov    %r8,%r9
  404cef:	49 89 f8             	mov    %rdi,%r8
  404cf2:	48 89 c7             	mov    %rax,%rdi
  404cf5:	41 ff d2             	callq  *%r10
  404cf8:	48 83 45 c8 01       	addq   $0x1,-0x38(%rbp)
  404cfd:	48 8b 45 80          	mov    -0x80(%rbp),%rax
  404d01:	48 89 c7             	mov    %rax,%rdi
  404d04:	e8 97 08 00 00       	callq  4055a0 <_ZNKSt6vectorIPN5hayai9OutputterESaIS2_EE4sizeEv>
  404d09:	48 3b 45 c8          	cmp    -0x38(%rbp),%rax
  404d0d:	0f 97 c0             	seta   %al
  404d10:	84 c0                	test   %al,%al
  404d12:	75 85                	jne    404c99 <_ZN5hayai11Benchmarker11RunAllTestsEv+0x2ff>
  404d14:	e9 38 02 00 00       	jmpq   404f51 <_ZN5hayai11Benchmarker11RunAllTestsEv+0x5b7>
  404d19:	48 c7 45 c0 00 00 00 	movq   $0x0,-0x40(%rbp)
  404d20:	00 
  404d21:	eb 64                	jmp    404d87 <_ZN5hayai11Benchmarker11RunAllTestsEv+0x3ed>
  404d23:	48 8b 55 c0          	mov    -0x40(%rbp),%rdx
  404d27:	48 8b 45 80          	mov    -0x80(%rbp),%rax
  404d2b:	48 89 d6             	mov    %rdx,%rsi
  404d2e:	48 89 c7             	mov    %rax,%rdi
  404d31:	e8 90 08 00 00       	callq  4055c6 <_ZNSt6vectorIPN5hayai9OutputterESaIS2_EEixEm>
  404d36:	48 8b 00             	mov    (%rax),%rax
  404d39:	48 8b 10             	mov    (%rax),%rdx
  404d3c:	48 83 c2 10          	add    $0x10,%rdx
  404d40:	4c 8b 12             	mov    (%rdx),%r10
  404d43:	48 8b 95 70 ff ff ff 	mov    -0x90(%rbp),%rdx
  404d4a:	4c 8d 42 18          	lea    0x18(%rdx),%r8
  404d4e:	48 8b 95 70 ff ff ff 	mov    -0x90(%rbp),%rdx
  404d55:	48 8d 7a 10          	lea    0x10(%rdx),%rdi
  404d59:	48 8b 95 70 ff ff ff 	mov    -0x90(%rbp),%rdx
  404d60:	48 8d 4a 28          	lea    0x28(%rdx),%rcx
  404d64:	48 8b 95 70 ff ff ff 	mov    -0x90(%rbp),%rdx
  404d6b:	48 83 c2 08          	add    $0x8,%rdx
  404d6f:	48 8b b5 70 ff ff ff 	mov    -0x90(%rbp),%rsi
  404d76:	4d 89 c1             	mov    %r8,%r9
  404d79:	49 89 f8             	mov    %rdi,%r8
  404d7c:	48 89 c7             	mov    %rax,%rdi
  404d7f:	41 ff d2             	callq  *%r10
  404d82:	48 83 45 c0 01       	addq   $0x1,-0x40(%rbp)
  404d87:	48 8b 45 80          	mov    -0x80(%rbp),%rax
  404d8b:	48 89 c7             	mov    %rax,%rdi
  404d8e:	e8 0d 08 00 00       	callq  4055a0 <_ZNKSt6vectorIPN5hayai9OutputterESaIS2_EE4sizeEv>
  404d93:	48 3b 45 c0          	cmp    -0x40(%rbp),%rax
  404d97:	0f 97 c0             	seta   %al
  404d9a:	84 c0                	test   %al,%al
  404d9c:	75 85                	jne    404d23 <_ZN5hayai11Benchmarker11RunAllTestsEv+0x389>
  404d9e:	48 c7 45 b8 00 00 00 	movq   $0x0,-0x48(%rbp)
  404da5:	00 
  404da6:	e8 85 d6 ff ff       	callq  402430 <_ZNSt14numeric_limitsIlE3maxEv>
  404dab:	48 89 45 b0          	mov    %rax,-0x50(%rbp)
  404daf:	e8 6c d6 ff ff       	callq  402420 <_ZNSt14numeric_limitsIlE3minEv>
  404db4:	48 89 45 a8          	mov    %rax,-0x58(%rbp)
  404db8:	48 8b 85 70 ff ff ff 	mov    -0x90(%rbp),%rax
  404dbf:	48 8b 40 10          	mov    0x10(%rax),%rax
  404dc3:	48 89 45 a0          	mov    %rax,-0x60(%rbp)
  404dc7:	e9 b2 00 00 00       	jmpq   404e7e <_ZN5hayai11Benchmarker11RunAllTestsEv+0x4e4>
  404dcc:	48 8b 85 70 ff ff ff 	mov    -0x90(%rbp),%rax
  404dd3:	48 8b 40 20          	mov    0x20(%rax),%rax
  404dd7:	48 8b 00             	mov    (%rax),%rax
  404dda:	48 83 c0 10          	add    $0x10,%rax
  404dde:	48 8b 00             	mov    (%rax),%rax
  404de1:	48 8b 95 70 ff ff ff 	mov    -0x90(%rbp),%rdx
  404de8:	48 8b 52 20          	mov    0x20(%rdx),%rdx
  404dec:	48 89 d7             	mov    %rdx,%rdi
  404def:	ff d0                	callq  *%rax
  404df1:	48 89 85 68 ff ff ff 	mov    %rax,-0x98(%rbp)
  404df8:	48 8b 85 70 ff ff ff 	mov    -0x90(%rbp),%rax
  404dff:	48 8b 50 18          	mov    0x18(%rax),%rdx
  404e03:	48 8b 85 68 ff ff ff 	mov    -0x98(%rbp),%rax
  404e0a:	48 89 d6             	mov    %rdx,%rsi
  404e0d:	48 89 c7             	mov    %rax,%rdi
  404e10:	e8 83 d9 ff ff       	callq  402798 <_ZN5hayai4Test3RunEm>
  404e15:	48 89 85 60 ff ff ff 	mov    %rax,-0xa0(%rbp)
  404e1c:	48 8b 85 60 ff ff ff 	mov    -0xa0(%rbp),%rax
  404e23:	48 01 45 b8          	add    %rax,-0x48(%rbp)
  404e27:	48 8b 45 b0          	mov    -0x50(%rbp),%rax
  404e2b:	48 3b 85 60 ff ff ff 	cmp    -0xa0(%rbp),%rax
  404e32:	7e 0b                	jle    404e3f <_ZN5hayai11Benchmarker11RunAllTestsEv+0x4a5>
  404e34:	48 8b 85 60 ff ff ff 	mov    -0xa0(%rbp),%rax
  404e3b:	48 89 45 b0          	mov    %rax,-0x50(%rbp)
  404e3f:	48 8b 45 a8          	mov    -0x58(%rbp),%rax
  404e43:	48 3b 85 60 ff ff ff 	cmp    -0xa0(%rbp),%rax
  404e4a:	7d 0b                	jge    404e57 <_ZN5hayai11Benchmarker11RunAllTestsEv+0x4bd>
  404e4c:	48 8b 85 60 ff ff ff 	mov    -0xa0(%rbp),%rax
  404e53:	48 89 45 a8          	mov    %rax,-0x58(%rbp)
  404e57:	48 83 bd 68 ff ff ff 	cmpq   $0x0,-0x98(%rbp)
  404e5e:	00 
  404e5f:	74 1d                	je     404e7e <_ZN5hayai11Benchmarker11RunAllTestsEv+0x4e4>
  404e61:	48 8b 85 68 ff ff ff 	mov    -0x98(%rbp),%rax
  404e68:	48 8b 00             	mov    (%rax),%rax
  404e6b:	48 83 c0 18          	add    $0x18,%rax
  404e6f:	48 8b 00             	mov    (%rax),%rax
  404e72:	48 8b 95 68 ff ff ff 	mov    -0x98(%rbp),%rdx
  404e79:	48 89 d7             	mov    %rdx,%rdi
  404e7c:	ff d0                	callq  *%rax
  404e7e:	48 8b 45 a0          	mov    -0x60(%rbp),%rax
  404e82:	48 8d 50 ff          	lea    -0x1(%rax),%rdx
  404e86:	48 89 55 a0          	mov    %rdx,-0x60(%rbp)
  404e8a:	48 85 c0             	test   %rax,%rax
  404e8d:	0f 95 c0             	setne  %al
  404e90:	84 c0                	test   %al,%al
  404e92:	0f 85 34 ff ff ff    	jne    404dcc <_ZN5hayai11Benchmarker11RunAllTestsEv+0x432>
  404e98:	66 0f ef d2          	pxor   %xmm2,%xmm2
  404e9c:	f2 48 0f 2a 55 a8    	cvtsi2sdq -0x58(%rbp),%xmm2
  404ea2:	66 0f ef c9          	pxor   %xmm1,%xmm1
  404ea6:	f2 48 0f 2a 4d b0    	cvtsi2sdq -0x50(%rbp),%xmm1
  404eac:	66 0f ef c0          	pxor   %xmm0,%xmm0
  404eb0:	f2 48 0f 2a 45 b8    	cvtsi2sdq -0x48(%rbp),%xmm0
  404eb6:	48 8b 85 70 ff ff ff 	mov    -0x90(%rbp),%rax
  404ebd:	48 8b 50 18          	mov    0x18(%rax),%rdx
  404ec1:	48 8b 85 70 ff ff ff 	mov    -0x90(%rbp),%rax
  404ec8:	48 8b 48 10          	mov    0x10(%rax),%rcx
  404ecc:	48 8d 85 b0 fe ff ff 	lea    -0x150(%rbp),%rax
  404ed3:	48 89 ce             	mov    %rcx,%rsi
  404ed6:	48 89 c7             	mov    %rax,%rdi
  404ed9:	e8 e6 d5 ff ff       	callq  4024c4 <_ZN5hayai10TestResultC1Emmddd>
  404ede:	48 c7 45 98 00 00 00 	movq   $0x0,-0x68(%rbp)
  404ee5:	00 
  404ee6:	eb 52                	jmp    404f3a <_ZN5hayai11Benchmarker11RunAllTestsEv+0x5a0>
  404ee8:	48 8b 55 98          	mov    -0x68(%rbp),%rdx
  404eec:	48 8b 45 80          	mov    -0x80(%rbp),%rax
  404ef0:	48 89 d6             	mov    %rdx,%rsi
  404ef3:	48 89 c7             	mov    %rax,%rdi
  404ef6:	e8 cb 06 00 00       	callq  4055c6 <_ZNSt6vectorIPN5hayai9OutputterESaIS2_EEixEm>
  404efb:	48 8b 00             	mov    (%rax),%rax
  404efe:	48 8b 10             	mov    (%rax),%rdx
  404f01:	48 83 c2 18          	add    $0x18,%rdx
  404f05:	4c 8b 0a             	mov    (%rdx),%r9
  404f08:	48 8b 95 70 ff ff ff 	mov    -0x90(%rbp),%rdx
  404f0f:	48 8d 4a 28          	lea    0x28(%rdx),%rcx
  404f13:	48 8b 95 70 ff ff ff 	mov    -0x90(%rbp),%rdx
  404f1a:	48 83 c2 08          	add    $0x8,%rdx
  404f1e:	48 8b b5 70 ff ff ff 	mov    -0x90(%rbp),%rsi
  404f25:	48 8d bd b0 fe ff ff 	lea    -0x150(%rbp),%rdi
  404f2c:	49 89 f8             	mov    %rdi,%r8
  404f2f:	48 89 c7             	mov    %rax,%rdi
  404f32:	41 ff d1             	callq  *%r9
  404f35:	48 83 45 98 01       	addq   $0x1,-0x68(%rbp)
  404f3a:	48 8b 45 80          	mov    -0x80(%rbp),%rax
  404f3e:	48 89 c7             	mov    %rax,%rdi
  404f41:	e8 5a 06 00 00       	callq  4055a0 <_ZNKSt6vectorIPN5hayai9OutputterESaIS2_EE4sizeEv>
  404f46:	48 3b 45 98          	cmp    -0x68(%rbp),%rax
  404f4a:	0f 97 c0             	seta   %al
  404f4d:	84 c0                	test   %al,%al
  404f4f:	75 97                	jne    404ee8 <_ZN5hayai11Benchmarker11RunAllTestsEv+0x54e>
  404f51:	48 8d 85 00 ff ff ff 	lea    -0x100(%rbp),%rax
  404f58:	48 89 c7             	mov    %rax,%rdi
  404f5b:	e8 34 05 00 00       	callq  405494 <_ZNKSt6vectorIPN5hayai14TestDescriptorESaIS2_EE4sizeEv>
  404f60:	48 3b 45 e0          	cmp    -0x20(%rbp),%rax
  404f64:	0f 97 c0             	seta   %al
  404f67:	84 c0                	test   %al,%al
  404f69:	0f 85 9d fb ff ff    	jne    404b0c <_ZN5hayai11Benchmarker11RunAllTestsEv+0x172>
  404f6f:	48 c7 45 90 00 00 00 	movq   $0x0,-0x70(%rbp)
  404f76:	00 
  404f77:	eb 38                	jmp    404fb1 <_ZN5hayai11Benchmarker11RunAllTestsEv+0x617>
  404f79:	48 8b 55 90          	mov    -0x70(%rbp),%rdx
  404f7d:	48 8b 45 80          	mov    -0x80(%rbp),%rax
  404f81:	48 89 d6             	mov    %rdx,%rsi
  404f84:	48 89 c7             	mov    %rax,%rdi
  404f87:	e8 3a 06 00 00       	callq  4055c6 <_ZNSt6vectorIPN5hayai9OutputterESaIS2_EEixEm>
  404f8c:	48 8b 00             	mov    (%rax),%rax
  404f8f:	48 8b 10             	mov    (%rax),%rdx
  404f92:	48 83 c2 08          	add    $0x8,%rdx
  404f96:	48 8b 0a             	mov    (%rdx),%rcx
  404f99:	48 8d 95 f8 fe ff ff 	lea    -0x108(%rbp),%rdx
  404fa0:	48 8d b5 e8 fe ff ff 	lea    -0x118(%rbp),%rsi
  404fa7:	48 89 c7             	mov    %rax,%rdi
  404faa:	ff d1                	callq  *%rcx
  404fac:	48 83 45 90 01       	addq   $0x1,-0x70(%rbp)
  404fb1:	48 8b 45 80          	mov    -0x80(%rbp),%rax
  404fb5:	48 89 c7             	mov    %rax,%rdi
  404fb8:	e8 e3 05 00 00       	callq  4055a0 <_ZNKSt6vectorIPN5hayai9OutputterESaIS2_EE4sizeEv>
  404fbd:	48 3b 45 90          	cmp    -0x70(%rbp),%rax
  404fc1:	0f 97 c0             	seta   %al
  404fc4:	84 c0                	test   %al,%al
  404fc6:	75 b1                	jne    404f79 <_ZN5hayai11Benchmarker11RunAllTestsEv+0x5df>
  404fc8:	48 8d 85 00 ff ff ff 	lea    -0x100(%rbp),%rax
  404fcf:	48 89 c7             	mov    %rax,%rdi
  404fd2:	e8 57 04 00 00       	callq  40542e <_ZNSt6vectorIPN5hayai14TestDescriptorESaIS2_EED1Ev>
  404fd7:	e9 81 00 00 00       	jmpq   40505d <_ZN5hayai11Benchmarker11RunAllTestsEv+0x6c3>
  404fdc:	48 89 c3             	mov    %rax,%rbx
  404fdf:	48 8d 85 40 ff ff ff 	lea    -0xc0(%rbp),%rax
  404fe6:	48 89 c7             	mov    %rax,%rdi
  404fe9:	e8 72 c3 ff ff       	callq  401360 <_ZNSsD1Ev@plt>
  404fee:	eb 17                	jmp    405007 <_ZN5hayai11Benchmarker11RunAllTestsEv+0x66d>
  404ff0:	48 89 c3             	mov    %rax,%rbx
  404ff3:	48 8d 85 e0 fe ff ff 	lea    -0x120(%rbp),%rax
  404ffa:	48 89 c7             	mov    %rax,%rdi
  404ffd:	e8 5e c3 ff ff       	callq  401360 <_ZNSsD1Ev@plt>
  405002:	eb 03                	jmp    405007 <_ZN5hayai11Benchmarker11RunAllTestsEv+0x66d>
  405004:	48 89 c3             	mov    %rax,%rbx
  405007:	48 8d 85 50 ff ff ff 	lea    -0xb0(%rbp),%rax
  40500e:	48 89 c7             	mov    %rax,%rdi
  405011:	e8 4a c3 ff ff       	callq  401360 <_ZNSsD1Ev@plt>
  405016:	eb 2b                	jmp    405043 <_ZN5hayai11Benchmarker11RunAllTestsEv+0x6a9>
  405018:	48 89 c3             	mov    %rax,%rbx
  40501b:	48 8d 85 e0 fe ff ff 	lea    -0x120(%rbp),%rax
  405022:	48 89 c7             	mov    %rax,%rdi
  405025:	e8 36 c3 ff ff       	callq  401360 <_ZNSsD1Ev@plt>
  40502a:	eb 17                	jmp    405043 <_ZN5hayai11Benchmarker11RunAllTestsEv+0x6a9>
  40502c:	48 89 c3             	mov    %rax,%rbx
  40502f:	48 8d 85 e0 fe ff ff 	lea    -0x120(%rbp),%rax
  405036:	48 89 c7             	mov    %rax,%rdi
  405039:	e8 22 c3 ff ff       	callq  401360 <_ZNSsD1Ev@plt>
  40503e:	eb 03                	jmp    405043 <_ZN5hayai11Benchmarker11RunAllTestsEv+0x6a9>
  405040:	48 89 c3             	mov    %rax,%rbx
  405043:	48 8d 85 00 ff ff ff 	lea    -0x100(%rbp),%rax
  40504a:	48 89 c7             	mov    %rax,%rdi
  40504d:	e8 dc 03 00 00       	callq  40542e <_ZNSt6vectorIPN5hayai14TestDescriptorESaIS2_EED1Ev>
  405052:	48 89 d8             	mov    %rbx,%rax
  405055:	48 89 c7             	mov    %rax,%rdi
  405058:	e8 23 c4 ff ff       	callq  401480 <_Unwind_Resume@plt>
  40505d:	48 81 c4 40 01 00 00 	add    $0x140,%rsp
  405064:	5b                   	pop    %rbx
  405065:	41 5c                	pop    %r12
  405067:	5d                   	pop    %rbp
  405068:	c3                   	retq   
  405069:	90                   	nop

000000000040506a <_ZN5hayai11BenchmarkerC1Ev>:
  40506a:	55                   	push   %rbp
  40506b:	48 89 e5             	mov    %rsp,%rbp
  40506e:	53                   	push   %rbx
  40506f:	48 83 ec 18          	sub    $0x18,%rsp
  405073:	48 89 7d e8          	mov    %rdi,-0x18(%rbp)
  405077:	48 8b 45 e8          	mov    -0x18(%rbp),%rax
  40507b:	48 89 c7             	mov    %rax,%rdi
  40507e:	e8 8d 06 00 00       	callq  405710 <_ZNSt6vectorIPN5hayai9OutputterESaIS2_EEC1Ev>
  405083:	48 8b 45 e8          	mov    -0x18(%rbp),%rax
  405087:	48 83 c0 18          	add    $0x18,%rax
  40508b:	48 89 c7             	mov    %rax,%rdi
  40508e:	e8 fd 06 00 00       	callq  405790 <_ZNSt6vectorIPN5hayai14TestDescriptorESaIS2_EEC1Ev>
  405093:	48 8b 45 e8          	mov    -0x18(%rbp),%rax
  405097:	48 83 c0 30          	add    $0x30,%rax
  40509b:	48 89 c7             	mov    %rax,%rdi
  40509e:	e8 07 07 00 00       	callq  4057aa <_ZNSt6vectorISsSaISsEEC1Ev>
  4050a3:	eb 2f                	jmp    4050d4 <_ZN5hayai11BenchmarkerC1Ev+0x6a>
  4050a5:	48 89 c3             	mov    %rax,%rbx
  4050a8:	48 8b 45 e8          	mov    -0x18(%rbp),%rax
  4050ac:	48 83 c0 18          	add    $0x18,%rax
  4050b0:	48 89 c7             	mov    %rax,%rdi
  4050b3:	e8 76 03 00 00       	callq  40542e <_ZNSt6vectorIPN5hayai14TestDescriptorESaIS2_EED1Ev>
  4050b8:	eb 03                	jmp    4050bd <_ZN5hayai11BenchmarkerC1Ev+0x53>
  4050ba:	48 89 c3             	mov    %rax,%rbx
  4050bd:	48 8b 45 e8          	mov    -0x18(%rbp),%rax
  4050c1:	48 89 c7             	mov    %rax,%rdi
  4050c4:	e8 61 06 00 00       	callq  40572a <_ZNSt6vectorIPN5hayai9OutputterESaIS2_EED1Ev>
  4050c9:	48 89 d8             	mov    %rbx,%rax
  4050cc:	48 89 c7             	mov    %rax,%rdi
  4050cf:	e8 ac c3 ff ff       	callq  401480 <_Unwind_Resume@plt>
  4050d4:	48 83 c4 18          	add    $0x18,%rsp
  4050d8:	5b                   	pop    %rbx
  4050d9:	5d                   	pop    %rbp
  4050da:	c3                   	retq   
  4050db:	90                   	nop

00000000004050dc <_ZNK5hayai11Benchmarker8GetTestsEv>:
  4050dc:	55                   	push   %rbp
  4050dd:	48 89 e5             	mov    %rsp,%rbp
  4050e0:	41 54                	push   %r12
  4050e2:	53                   	push   %rbx
  4050e3:	48 83 ec 50          	sub    $0x50,%rsp
  4050e7:	48 89 7d a8          	mov    %rdi,-0x58(%rbp)
  4050eb:	48 89 75 a0          	mov    %rsi,-0x60(%rbp)
  4050ef:	48 8b 45 a8          	mov    -0x58(%rbp),%rax
  4050f3:	48 89 c7             	mov    %rax,%rdi
  4050f6:	e8 95 06 00 00       	callq  405790 <_ZNSt6vectorIPN5hayai14TestDescriptorESaIS2_EEC1Ev>
  4050fb:	48 c7 45 e8 00 00 00 	movq   $0x0,-0x18(%rbp)
  405102:	00 
  405103:	e9 59 01 00 00       	jmpq   405261 <_ZNK5hayai11Benchmarker8GetTestsEv+0x185>
  405108:	48 8b 45 e8          	mov    -0x18(%rbp),%rax
  40510c:	48 8d 50 01          	lea    0x1(%rax),%rdx
  405110:	48 89 55 e8          	mov    %rdx,-0x18(%rbp)
  405114:	48 8b 55 a0          	mov    -0x60(%rbp),%rdx
  405118:	48 83 c2 18          	add    $0x18,%rdx
  40511c:	48 89 c6             	mov    %rax,%rsi
  40511f:	48 89 d7             	mov    %rdx,%rdi
  405122:	e8 03 07 00 00       	callq  40582a <_ZNKSt6vectorIPN5hayai14TestDescriptorESaIS2_EEixEm>
  405127:	48 8b 00             	mov    (%rax),%rax
  40512a:	48 89 45 b8          	mov    %rax,-0x48(%rbp)
  40512e:	48 8b 45 a0          	mov    -0x60(%rbp),%rax
  405132:	48 83 c0 30          	add    $0x30,%rax
  405136:	48 89 c7             	mov    %rax,%rdi
  405139:	e8 0c 07 00 00       	callq  40584a <_ZNKSt6vectorISsSaISsEE5emptyEv>
  40513e:	83 f0 01             	xor    $0x1,%eax
  405141:	84 c0                	test   %al,%al
  405143:	0f 84 05 01 00 00    	je     40524e <_ZNK5hayai11Benchmarker8GetTestsEv+0x172>
  405149:	c6 45 e7 00          	movb   $0x0,-0x19(%rbp)
  40514d:	48 8b 45 b8          	mov    -0x48(%rbp),%rax
  405151:	48 8d 58 28          	lea    0x28(%rax),%rbx
  405155:	48 8b 45 b8          	mov    -0x48(%rbp),%rax
  405159:	4c 8d 60 08          	lea    0x8(%rax),%r12
  40515d:	48 8b 45 b8          	mov    -0x48(%rbp),%rax
  405161:	48 89 c1             	mov    %rax,%rcx
  405164:	48 8d 45 d0          	lea    -0x30(%rbp),%rax
  405168:	ba 20 78 40 00       	mov    $0x407820,%edx
  40516d:	48 89 ce             	mov    %rcx,%rsi
  405170:	48 89 c7             	mov    %rax,%rdi
  405173:	e8 b4 04 00 00       	callq  40562c <_ZStplIcSt11char_traitsIcESaIcEESbIT_T0_T1_ERKS6_PKS3_>
  405178:	48 8d 45 c0          	lea    -0x40(%rbp),%rax
  40517c:	48 8d 4d d0          	lea    -0x30(%rbp),%rcx
  405180:	4c 89 e2             	mov    %r12,%rdx
  405183:	48 89 ce             	mov    %rcx,%rsi
  405186:	48 89 c7             	mov    %rax,%rdi
  405189:	e8 00 05 00 00       	callq  40568e <_ZStplIcSt11char_traitsIcESaIcEESbIT_T0_T1_ERKS6_S8_>
  40518e:	48 8d 45 b0          	lea    -0x50(%rbp),%rax
  405192:	48 8d 4d c0          	lea    -0x40(%rbp),%rcx
  405196:	48 89 da             	mov    %rbx,%rdx
  405199:	48 89 ce             	mov    %rcx,%rsi
  40519c:	48 89 c7             	mov    %rax,%rdi
  40519f:	e8 ea 04 00 00       	callq  40568e <_ZStplIcSt11char_traitsIcESaIcEESbIT_T0_T1_ERKS6_S8_>
  4051a4:	48 8d 45 c0          	lea    -0x40(%rbp),%rax
  4051a8:	48 89 c7             	mov    %rax,%rdi
  4051ab:	e8 b0 c1 ff ff       	callq  401360 <_ZNSsD1Ev@plt>
  4051b0:	48 8d 45 d0          	lea    -0x30(%rbp),%rax
  4051b4:	48 89 c7             	mov    %rax,%rdi
  4051b7:	e8 a4 c1 ff ff       	callq  401360 <_ZNSsD1Ev@plt>
  4051bc:	48 c7 45 d8 00 00 00 	movq   $0x0,-0x28(%rbp)
  4051c3:	00 
  4051c4:	eb 44                	jmp    40520a <_ZNK5hayai11Benchmarker8GetTestsEv+0x12e>
  4051c6:	48 8b 45 a0          	mov    -0x60(%rbp),%rax
